   1               		.file	"util.c"
   2               	__SP_H__ = 0x3e
   3               	__SP_L__ = 0x3d
   4               	__SREG__ = 0x3f
   5               	__tmp_reg__ = 0
   6               	__zero_reg__ = 1
   7               		.text
   8               	.Ltext0:
   9               		.cfi_sections	.debug_frame
  10               		.section	.text.bitpop,"ax",@progbits
  11               	.global	bitpop
  13               	bitpop:
  14               	.LFB0:
  15               		.file 1 "../tmk_core/common/util.c"
   1:../tmk_core/common/util.c **** /*
   2:../tmk_core/common/util.c **** Copyright 2011 Jun Wako <wakojun@gmail.com>
   3:../tmk_core/common/util.c **** 
   4:../tmk_core/common/util.c **** This program is free software: you can redistribute it and/or modify
   5:../tmk_core/common/util.c **** it under the terms of the GNU General Public License as published by
   6:../tmk_core/common/util.c **** the Free Software Foundation, either version 2 of the License, or
   7:../tmk_core/common/util.c **** (at your option) any later version.
   8:../tmk_core/common/util.c **** 
   9:../tmk_core/common/util.c **** This program is distributed in the hope that it will be useful,
  10:../tmk_core/common/util.c **** but WITHOUT ANY WARRANTY; without even the implied warranty of
  11:../tmk_core/common/util.c **** MERCHANTABILITY or FITNESS FOR A PARTICULAR PURPOSE.  See the
  12:../tmk_core/common/util.c **** GNU General Public License for more details.
  13:../tmk_core/common/util.c **** 
  14:../tmk_core/common/util.c **** You should have received a copy of the GNU General Public License
  15:../tmk_core/common/util.c **** along with this program.  If not, see <http://www.gnu.org/licenses/>.
  16:../tmk_core/common/util.c **** */
  17:../tmk_core/common/util.c **** 
  18:../tmk_core/common/util.c **** #include "util.h"
  19:../tmk_core/common/util.c **** 
  20:../tmk_core/common/util.c **** // bit population - return number of on-bit
  21:../tmk_core/common/util.c **** uint8_t bitpop(uint8_t bits)
  22:../tmk_core/common/util.c **** {
  16               		.loc 1 22 0
  17               		.cfi_startproc
  18               	.LVL0:
  19               	/* prologue: function */
  20               	/* frame size = 0 */
  21               	/* stack size = 0 */
  22               	.L__stack_usage = 0
  23:../tmk_core/common/util.c ****     uint8_t c;
  24:../tmk_core/common/util.c ****     for (c = 0; bits; c++)
  23               		.loc 1 24 0
  24 0000 90E0      		ldi r25,0
  25               	.LVL1:
  26               	.L2:
  27               		.loc 1 24 0 is_stmt 0 discriminator 1
  28 0002 8823      		tst r24
  29 0004 01F0      		breq .L5
  25:../tmk_core/common/util.c ****         bits &= bits - 1;
  30               		.loc 1 25 0 is_stmt 1 discriminator 3
  31 0006 2FEF      		ldi r18,lo8(-1)
  32 0008 280F      		add r18,r24
  33 000a 8223      		and r24,r18
  34               	.LVL2:
  24:../tmk_core/common/util.c ****         bits &= bits - 1;
  35               		.loc 1 24 0 discriminator 3
  36 000c 9F5F      		subi r25,lo8(-(1))
  37               	.LVL3:
  38 000e 00C0      		rjmp .L2
  39               	.L5:
  26:../tmk_core/common/util.c ****     return c;
  27:../tmk_core/common/util.c **** /*
  28:../tmk_core/common/util.c ****     const uint8_t bit_count[] = { 0, 1, 1, 2, 1, 2, 2, 3, 1, 2, 2, 3, 2, 3, 3, 4 };
  29:../tmk_core/common/util.c ****     return bit_count[bits>>4] + bit_count[bits&0x0F]
  30:../tmk_core/common/util.c **** */
  31:../tmk_core/common/util.c **** }
  40               		.loc 1 31 0
  41 0010 892F      		mov r24,r25
  42               	.LVL4:
  43 0012 0895      		ret
  44               		.cfi_endproc
  45               	.LFE0:
  47               		.section	.text.bitpop16,"ax",@progbits
  48               	.global	bitpop16
  50               	bitpop16:
  51               	.LFB1:
  32:../tmk_core/common/util.c **** 
  33:../tmk_core/common/util.c **** uint8_t bitpop16(uint16_t bits)
  34:../tmk_core/common/util.c **** {
  52               		.loc 1 34 0
  53               		.cfi_startproc
  54               	.LVL5:
  55               	/* prologue: function */
  56               	/* frame size = 0 */
  57               	/* stack size = 0 */
  58               	.L__stack_usage = 0
  35:../tmk_core/common/util.c ****     uint8_t c;
  36:../tmk_core/common/util.c ****     for (c = 0; bits; c++)
  59               		.loc 1 36 0
  60 0000 20E0      		ldi r18,0
  61               	.LVL6:
  62               	.L7:
  63               		.loc 1 36 0 is_stmt 0 discriminator 1
  64 0002 0097      		sbiw r24,0
  65 0004 01F0      		breq .L9
  37:../tmk_core/common/util.c ****         bits &= bits - 1;
  66               		.loc 1 37 0 is_stmt 1 discriminator 3
  67 0006 AC01      		movw r20,r24
  68 0008 4150      		subi r20,1
  69 000a 5109      		sbc r21,__zero_reg__
  70 000c 8423      		and r24,r20
  71 000e 9523      		and r25,r21
  72               	.LVL7:
  36:../tmk_core/common/util.c ****         bits &= bits - 1;
  73               		.loc 1 36 0 discriminator 3
  74 0010 2F5F      		subi r18,lo8(-(1))
  75               	.LVL8:
  76 0012 00C0      		rjmp .L7
  77               	.L9:
  38:../tmk_core/common/util.c ****     return c;
  39:../tmk_core/common/util.c **** }
  78               		.loc 1 39 0
  79 0014 822F      		mov r24,r18
  80               	.LVL9:
  81 0016 0895      		ret
  82               		.cfi_endproc
  83               	.LFE1:
  85               		.section	.text.bitpop32,"ax",@progbits
  86               	.global	bitpop32
  88               	bitpop32:
  89               	.LFB2:
  40:../tmk_core/common/util.c **** 
  41:../tmk_core/common/util.c **** uint8_t bitpop32(uint32_t bits)
  42:../tmk_core/common/util.c **** {
  90               		.loc 1 42 0
  91               		.cfi_startproc
  92               	.LVL10:
  93 0000 CF92      		push r12
  94               	.LCFI0:
  95               		.cfi_def_cfa_offset 3
  96               		.cfi_offset 12, -2
  97 0002 DF92      		push r13
  98               	.LCFI1:
  99               		.cfi_def_cfa_offset 4
 100               		.cfi_offset 13, -3
 101 0004 EF92      		push r14
 102               	.LCFI2:
 103               		.cfi_def_cfa_offset 5
 104               		.cfi_offset 14, -4
 105 0006 FF92      		push r15
 106               	.LCFI3:
 107               		.cfi_def_cfa_offset 6
 108               		.cfi_offset 15, -5
 109               	/* prologue: function */
 110               	/* frame size = 0 */
 111               	/* stack size = 4 */
 112               	.L__stack_usage = 4
 113               	.LVL11:
  43:../tmk_core/common/util.c ****     uint8_t c;
  44:../tmk_core/common/util.c ****     for (c = 0; bits; c++)
 114               		.loc 1 44 0
 115 0008 20E0      		ldi r18,0
 116               	.LVL12:
 117               	.L11:
 118               		.loc 1 44 0 is_stmt 0 discriminator 1
 119 000a 6115      		cp r22,__zero_reg__
 120 000c 7105      		cpc r23,__zero_reg__
 121 000e 8105      		cpc r24,__zero_reg__
 122 0010 9105      		cpc r25,__zero_reg__
 123 0012 01F0      		breq .L13
  45:../tmk_core/common/util.c ****         bits &= bits - 1;
 124               		.loc 1 45 0 is_stmt 1 discriminator 3
 125 0014 6B01      		movw r12,r22
 126 0016 7C01      		movw r14,r24
 127 0018 31E0      		ldi r19,1
 128 001a C31A      		sub r12,r19
 129 001c D108      		sbc r13,__zero_reg__
 130 001e E108      		sbc r14,__zero_reg__
 131 0020 F108      		sbc r15,__zero_reg__
 132 0022 6C21      		and r22,r12
 133 0024 7D21      		and r23,r13
 134 0026 8E21      		and r24,r14
 135 0028 9F21      		and r25,r15
 136               	.LVL13:
  44:../tmk_core/common/util.c ****         bits &= bits - 1;
 137               		.loc 1 44 0 discriminator 3
 138 002a 2F5F      		subi r18,lo8(-(1))
 139               	.LVL14:
 140 002c 00C0      		rjmp .L11
 141               	.L13:
  46:../tmk_core/common/util.c ****     return c;
  47:../tmk_core/common/util.c **** }
 142               		.loc 1 47 0
 143 002e 822F      		mov r24,r18
 144               	/* epilogue start */
 145 0030 FF90      		pop r15
 146 0032 EF90      		pop r14
 147 0034 DF90      		pop r13
 148 0036 CF90      		pop r12
 149 0038 0895      		ret
 150               		.cfi_endproc
 151               	.LFE2:
 153               		.section	.text.biton,"ax",@progbits
 154               	.global	biton
 156               	biton:
 157               	.LFB3:
  48:../tmk_core/common/util.c **** 
  49:../tmk_core/common/util.c **** // most significant on-bit - return highest location of on-bit
  50:../tmk_core/common/util.c **** // NOTE: return 0 when bit0 is on or all bits are off
  51:../tmk_core/common/util.c **** uint8_t biton(uint8_t bits)
  52:../tmk_core/common/util.c **** {
 158               		.loc 1 52 0
 159               		.cfi_startproc
 160               	.LVL15:
 161               	/* prologue: function */
 162               	/* frame size = 0 */
 163               	/* stack size = 0 */
 164               	.L__stack_usage = 0
  53:../tmk_core/common/util.c ****     uint8_t n = 0;
  54:../tmk_core/common/util.c ****     if (bits >> 4) { bits >>= 4; n += 4;}
 165               		.loc 1 54 0
 166 0000 982F      		mov r25,r24
 167 0002 9295      		swap r25
 168 0004 9F70      		andi r25,lo8(15)
 169 0006 01F0      		breq .L18
 170 0008 892F      		mov r24,r25
 171               	.LVL16:
 172 000a 24E0      		ldi r18,lo8(4)
 173 000c 00C0      		rjmp .L15
 174               	.LVL17:
 175               	.L18:
  53:../tmk_core/common/util.c ****     uint8_t n = 0;
 176               		.loc 1 53 0
 177 000e 20E0      		ldi r18,0
 178               	.LVL18:
 179               	.L15:
  55:../tmk_core/common/util.c ****     if (bits >> 2) { bits >>= 2; n += 2;}
 180               		.loc 1 55 0
 181 0010 982F      		mov r25,r24
 182 0012 9695      		lsr r25
 183 0014 9695      		lsr r25
 184 0016 01F0      		breq .L16
 185               	.LVL19:
 186               		.loc 1 55 0 is_stmt 0 discriminator 1
 187 0018 2E5F      		subi r18,lo8(-(2))
 188               	.LVL20:
 189 001a 892F      		mov r24,r25
 190               	.LVL21:
 191               	.L16:
  56:../tmk_core/common/util.c ****     if (bits >> 1) { bits >>= 1; n += 1;}
 192               		.loc 1 56 0 is_stmt 1
 193 001c 982F      		mov r25,r24
 194 001e 9695      		lsr r25
 195 0020 01F0      		breq .L17
 196               	.LVL22:
 197               		.loc 1 56 0 is_stmt 0 discriminator 1
 198 0022 2F5F      		subi r18,lo8(-(1))
 199               	.LVL23:
 200               	.L17:
  57:../tmk_core/common/util.c ****     return n;
  58:../tmk_core/common/util.c **** }
 201               		.loc 1 58 0 is_stmt 1
 202 0024 822F      		mov r24,r18
 203 0026 0895      		ret
 204               		.cfi_endproc
 205               	.LFE3:
 207               		.section	.text.biton16,"ax",@progbits
 208               	.global	biton16
 210               	biton16:
 211               	.LFB4:
  59:../tmk_core/common/util.c **** 
  60:../tmk_core/common/util.c **** uint8_t biton16(uint16_t bits)
  61:../tmk_core/common/util.c **** {
 212               		.loc 1 61 0
 213               		.cfi_startproc
 214               	.LVL24:
 215               	/* prologue: function */
 216               	/* frame size = 0 */
 217               	/* stack size = 0 */
 218               	.L__stack_usage = 0
  62:../tmk_core/common/util.c ****     uint8_t n = 0;
  63:../tmk_core/common/util.c ****     if (bits >> 8) { bits >>= 8; n += 8;}
 219               		.loc 1 63 0
 220 0000 292F      		mov r18,r25
 221 0002 3327      		clr r19
 222 0004 2115      		cp r18,__zero_reg__
 223 0006 3105      		cpc r19,__zero_reg__
 224 0008 01F0      		breq .L30
 225 000a C901      		movw r24,r18
 226               	.LVL25:
 227 000c 48E0      		ldi r20,lo8(8)
 228 000e 00C0      		rjmp .L26
 229               	.LVL26:
 230               	.L30:
  62:../tmk_core/common/util.c ****     uint8_t n = 0;
 231               		.loc 1 62 0
 232 0010 40E0      		ldi r20,0
 233               	.LVL27:
 234               	.L26:
  64:../tmk_core/common/util.c ****     if (bits >> 4) { bits >>= 4; n += 4;}
 235               		.loc 1 64 0
 236 0012 9C01      		movw r18,r24
 237 0014 64E0      		ldi r22,4
 238               		1:
 239 0016 3695      		lsr r19
 240 0018 2795      		ror r18
 241 001a 6A95      		dec r22
 242 001c 01F4      		brne 1b
 243 001e 2115      		cp r18,__zero_reg__
 244 0020 3105      		cpc r19,__zero_reg__
 245 0022 01F0      		breq .L27
 246               	.LVL28:
 247               		.loc 1 64 0 is_stmt 0 discriminator 1
 248 0024 4C5F      		subi r20,lo8(-(4))
 249               	.LVL29:
 250 0026 C901      		movw r24,r18
 251               	.LVL30:
 252               	.L27:
  65:../tmk_core/common/util.c ****     if (bits >> 2) { bits >>= 2; n += 2;}
 253               		.loc 1 65 0 is_stmt 1
 254 0028 9C01      		movw r18,r24
 255 002a 3695      		lsr r19
 256 002c 2795      		ror r18
 257 002e 3695      		lsr r19
 258 0030 2795      		ror r18
 259 0032 2115      		cp r18,__zero_reg__
 260 0034 3105      		cpc r19,__zero_reg__
 261 0036 01F0      		breq .L28
 262               	.LVL31:
 263               		.loc 1 65 0 is_stmt 0 discriminator 1
 264 0038 4E5F      		subi r20,lo8(-(2))
 265               	.LVL32:
 266 003a C901      		movw r24,r18
 267               	.LVL33:
 268               	.L28:
  66:../tmk_core/common/util.c ****     if (bits >> 1) { bits >>= 1; n += 1;}
 269               		.loc 1 66 0 is_stmt 1
 270 003c 9C01      		movw r18,r24
 271 003e 3695      		lsr r19
 272 0040 2795      		ror r18
 273               	.LVL34:
 274 0042 232B      		or r18,r19
 275 0044 01F0      		breq .L29
 276               		.loc 1 66 0 is_stmt 0 discriminator 1
 277 0046 4F5F      		subi r20,lo8(-(1))
 278               	.LVL35:
 279               	.L29:
  67:../tmk_core/common/util.c ****     return n;
  68:../tmk_core/common/util.c **** }
 280               		.loc 1 68 0 is_stmt 1
 281 0048 842F      		mov r24,r20
 282 004a 0895      		ret
 283               		.cfi_endproc
 284               	.LFE4:
 286               		.section	.text.biton32,"ax",@progbits
 287               	.global	biton32
 289               	biton32:
 290               	.LFB5:
  69:../tmk_core/common/util.c **** 
  70:../tmk_core/common/util.c **** uint8_t biton32(uint32_t bits)
  71:../tmk_core/common/util.c **** {
 291               		.loc 1 71 0
 292               		.cfi_startproc
 293               	.LVL36:
 294 0000 CF92      		push r12
 295               	.LCFI4:
 296               		.cfi_def_cfa_offset 3
 297               		.cfi_offset 12, -2
 298 0002 DF92      		push r13
 299               	.LCFI5:
 300               		.cfi_def_cfa_offset 4
 301               		.cfi_offset 13, -3
 302 0004 EF92      		push r14
 303               	.LCFI6:
 304               		.cfi_def_cfa_offset 5
 305               		.cfi_offset 14, -4
 306 0006 FF92      		push r15
 307               	.LCFI7:
 308               		.cfi_def_cfa_offset 6
 309               		.cfi_offset 15, -5
 310               	/* prologue: function */
 311               	/* frame size = 0 */
 312               	/* stack size = 4 */
 313               	.L__stack_usage = 4
 314               	.LVL37:
  72:../tmk_core/common/util.c ****     uint8_t n = 0;
  73:../tmk_core/common/util.c ****     if (bits >>16) { bits >>=16; n +=16;}
 315               		.loc 1 73 0
 316 0008 6C01      		movw r12,r24
 317 000a EE24      		clr r14
 318 000c FF24      		clr r15
 319 000e C114      		cp r12,__zero_reg__
 320 0010 D104      		cpc r13,__zero_reg__
 321 0012 E104      		cpc r14,__zero_reg__
 322 0014 F104      		cpc r15,__zero_reg__
 323 0016 01F0      		breq .L46
 324 0018 C701      		movw r24,r14
 325 001a B601      		movw r22,r12
 326               	.LVL38:
 327 001c 20E1      		ldi r18,lo8(16)
 328 001e 00C0      		rjmp .L41
 329               	.LVL39:
 330               	.L46:
  72:../tmk_core/common/util.c ****     uint8_t n = 0;
 331               		.loc 1 72 0
 332 0020 20E0      		ldi r18,0
 333               	.LVL40:
 334               	.L41:
  74:../tmk_core/common/util.c ****     if (bits >> 8) { bits >>= 8; n += 8;}
 335               		.loc 1 74 0
 336 0022 C72E      		mov r12,r23
 337 0024 D82E      		mov r13,r24
 338 0026 E92E      		mov r14,r25
 339 0028 FF24      		clr r15
 340 002a C114      		cp r12,__zero_reg__
 341 002c D104      		cpc r13,__zero_reg__
 342 002e E104      		cpc r14,__zero_reg__
 343 0030 F104      		cpc r15,__zero_reg__
 344 0032 01F0      		breq .L42
 345               	.LVL41:
 346               		.loc 1 74 0 is_stmt 0 discriminator 1
 347 0034 285F      		subi r18,lo8(-(8))
 348               	.LVL42:
 349 0036 C701      		movw r24,r14
 350 0038 B601      		movw r22,r12
 351               	.LVL43:
 352               	.L42:
  75:../tmk_core/common/util.c ****     if (bits >> 4) { bits >>= 4; n += 4;}
 353               		.loc 1 75 0 is_stmt 1
 354 003a 6B01      		movw r12,r22
 355 003c 7C01      		movw r14,r24
 356 003e 54E0      		ldi r21,4
 357               		1:
 358 0040 F694      		lsr r15
 359 0042 E794      		ror r14
 360 0044 D794      		ror r13
 361 0046 C794      		ror r12
 362 0048 5A95      		dec r21
 363 004a 01F4      		brne 1b
 364 004c C114      		cp r12,__zero_reg__
 365 004e D104      		cpc r13,__zero_reg__
 366 0050 E104      		cpc r14,__zero_reg__
 367 0052 F104      		cpc r15,__zero_reg__
 368 0054 01F0      		breq .L43
 369               	.LVL44:
 370               		.loc 1 75 0 is_stmt 0 discriminator 1
 371 0056 2C5F      		subi r18,lo8(-(4))
 372               	.LVL45:
 373 0058 C701      		movw r24,r14
 374 005a B601      		movw r22,r12
 375               	.LVL46:
 376               	.L43:
  76:../tmk_core/common/util.c ****     if (bits >> 2) { bits >>= 2; n += 2;}
 377               		.loc 1 76 0 is_stmt 1
 378 005c 6B01      		movw r12,r22
 379 005e 7C01      		movw r14,r24
 380 0060 42E0      		ldi r20,2
 381               		1:
 382 0062 F694      		lsr r15
 383 0064 E794      		ror r14
 384 0066 D794      		ror r13
 385 0068 C794      		ror r12
 386 006a 4A95      		dec r20
 387 006c 01F4      		brne 1b
 388 006e C114      		cp r12,__zero_reg__
 389 0070 D104      		cpc r13,__zero_reg__
 390 0072 E104      		cpc r14,__zero_reg__
 391 0074 F104      		cpc r15,__zero_reg__
 392 0076 01F0      		breq .L44
 393               	.LVL47:
 394               		.loc 1 76 0 is_stmt 0 discriminator 1
 395 0078 2E5F      		subi r18,lo8(-(2))
 396               	.LVL48:
 397 007a C701      		movw r24,r14
 398 007c B601      		movw r22,r12
 399               	.LVL49:
 400               	.L44:
  77:../tmk_core/common/util.c ****     if (bits >> 1) { bits >>= 1; n += 1;}
 401               		.loc 1 77 0 is_stmt 1
 402 007e DC01      		movw r26,r24
 403 0080 CB01      		movw r24,r22
 404 0082 B695      		lsr r27
 405 0084 A795      		ror r26
 406 0086 9795      		ror r25
 407 0088 8795      		ror r24
 408 008a 892B      		or r24,r25
 409 008c 8A2B      		or r24,r26
 410 008e 8B2B      		or r24,r27
 411 0090 01F0      		breq .L45
 412               	.LVL50:
 413               		.loc 1 77 0 is_stmt 0 discriminator 1
 414 0092 2F5F      		subi r18,lo8(-(1))
 415               	.LVL51:
 416               	.L45:
  78:../tmk_core/common/util.c ****     return n;
  79:../tmk_core/common/util.c **** }
 417               		.loc 1 79 0 is_stmt 1
 418 0094 822F      		mov r24,r18
 419               	/* epilogue start */
 420 0096 FF90      		pop r15
 421 0098 EF90      		pop r14
 422 009a DF90      		pop r13
 423 009c CF90      		pop r12
 424 009e 0895      		ret
 425               		.cfi_endproc
 426               	.LFE5:
 428               		.section	.text.bitrev,"ax",@progbits
 429               	.global	bitrev
 431               	bitrev:
 432               	.LFB6:
  80:../tmk_core/common/util.c **** 
  81:../tmk_core/common/util.c **** 
  82:../tmk_core/common/util.c **** 
  83:../tmk_core/common/util.c **** uint8_t bitrev(uint8_t bits)
  84:../tmk_core/common/util.c **** {
 433               		.loc 1 84 0
 434               		.cfi_startproc
 435               	.LVL52:
 436               	/* prologue: function */
 437               	/* frame size = 0 */
 438               	/* stack size = 0 */
 439               	.L__stack_usage = 0
  85:../tmk_core/common/util.c ****     bits = (bits & 0x0f)<<4 | (bits & 0xf0)>>4;
 440               		.loc 1 85 0
 441 0000 8295      		swap r24
 442               	.LVL53:
  86:../tmk_core/common/util.c ****     bits = (bits & 0b00110011)<<2 | (bits & 0b11001100)>>2;
 443               		.loc 1 86 0
 444 0002 982F      		mov r25,r24
 445 0004 9C7C      		andi r25,lo8(-52)
 446 0006 392F      		mov r19,r25
 447 0008 3695      		lsr r19
 448 000a 3695      		lsr r19
 449 000c 282F      		mov r18,r24
 450 000e 2373      		andi r18,lo8(51)
 451 0010 44E0      		ldi r20,lo8(4)
 452 0012 249F      		mul r18,r20
 453 0014 C001      		movw r24,r0
 454 0016 1124      		clr __zero_reg__
 455               	.LVL54:
 456 0018 932F      		mov r25,r19
 457 001a 982B      		or r25,r24
 458               	.LVL55:
  87:../tmk_core/common/util.c ****     bits = (bits & 0b01010101)<<1 | (bits & 0b10101010)>>1;
 459               		.loc 1 87 0
 460 001c 292F      		mov r18,r25
 461 001e 2A7A      		andi r18,lo8(-86)
 462 0020 2695      		lsr r18
 463 0022 892F      		mov r24,r25
 464 0024 8575      		andi r24,lo8(85)
 465 0026 880F      		lsl r24
 466               	.LVL56:
  88:../tmk_core/common/util.c ****     return bits;
  89:../tmk_core/common/util.c **** }
 467               		.loc 1 89 0
 468 0028 822B      		or r24,r18
 469               	.LVL57:
 470 002a 0895      		ret
 471               		.cfi_endproc
 472               	.LFE6:
 474               		.section	.text.bitrev16,"ax",@progbits
 475               	.global	bitrev16
 477               	bitrev16:
 478               	.LFB7:
  90:../tmk_core/common/util.c **** 
  91:../tmk_core/common/util.c **** uint16_t bitrev16(uint16_t bits)
  92:../tmk_core/common/util.c **** {
 479               		.loc 1 92 0
 480               		.cfi_startproc
 481               	.LVL58:
 482 0000 1F93      		push r17
 483               	.LCFI8:
 484               		.cfi_def_cfa_offset 3
 485               		.cfi_offset 17, -2
 486 0002 CF93      		push r28
 487               	.LCFI9:
 488               		.cfi_def_cfa_offset 4
 489               		.cfi_offset 28, -3
 490 0004 DF93      		push r29
 491               	.LCFI10:
 492               		.cfi_def_cfa_offset 5
 493               		.cfi_offset 29, -4
 494 0006 1F92      		push __zero_reg__
 495               	.LCFI11:
 496               		.cfi_def_cfa_offset 6
 497 0008 CDB7      		in r28,__SP_L__
 498 000a DEB7      		in r29,__SP_H__
 499               	.LCFI12:
 500               		.cfi_def_cfa_register 28
 501               	/* prologue: function */
 502               	/* frame size = 1 */
 503               	/* stack size = 4 */
 504               	.L__stack_usage = 4
  93:../tmk_core/common/util.c ****     bits = bitrev(bits & 0x00ff)<<8 | bitrev((bits & 0xff00)>>8);
 505               		.loc 1 93 0
 506 000c 9983      		std Y+1,r25
 507 000e 0E94 0000 		call bitrev
 508               	.LVL59:
 509 0012 182F      		mov r17,r24
 510 0014 9981      		ldd r25,Y+1
 511 0016 892F      		mov r24,r25
 512 0018 0E94 0000 		call bitrev
 513               	.LVL60:
 514 001c 212F      		mov r18,r17
 515 001e 30E0      		ldi r19,0
 516 0020 322F      		mov r19,r18
 517 0022 2227      		clr r18
  94:../tmk_core/common/util.c ****     return bits;
  95:../tmk_core/common/util.c **** }
 518               		.loc 1 95 0
 519 0024 A901      		movw r20,r18
 520 0026 482B      		or r20,r24
 521 0028 CA01      		movw r24,r20
 522               	.LVL61:
 523               	/* epilogue start */
 524 002a 0F90      		pop __tmp_reg__
 525 002c DF91      		pop r29
 526 002e CF91      		pop r28
 527 0030 1F91      		pop r17
 528 0032 0895      		ret
 529               		.cfi_endproc
 530               	.LFE7:
 532               		.section	.text.bitrev32,"ax",@progbits
 533               	.global	bitrev32
 535               	bitrev32:
 536               	.LFB8:
  96:../tmk_core/common/util.c **** 
  97:../tmk_core/common/util.c **** uint32_t bitrev32(uint32_t bits)
  98:../tmk_core/common/util.c **** {
 537               		.loc 1 98 0
 538               		.cfi_startproc
 539               	.LVL62:
 540 0000 CF92      		push r12
 541               	.LCFI13:
 542               		.cfi_def_cfa_offset 3
 543               		.cfi_offset 12, -2
 544 0002 DF92      		push r13
 545               	.LCFI14:
 546               		.cfi_def_cfa_offset 4
 547               		.cfi_offset 13, -3
 548 0004 EF92      		push r14
 549               	.LCFI15:
 550               		.cfi_def_cfa_offset 5
 551               		.cfi_offset 14, -4
 552 0006 FF92      		push r15
 553               	.LCFI16:
 554               		.cfi_def_cfa_offset 6
 555               		.cfi_offset 15, -5
 556 0008 0F93      		push r16
 557               	.LCFI17:
 558               		.cfi_def_cfa_offset 7
 559               		.cfi_offset 16, -6
 560 000a 1F93      		push r17
 561               	.LCFI18:
 562               		.cfi_def_cfa_offset 8
 563               		.cfi_offset 17, -7
 564 000c CF93      		push r28
 565               	.LCFI19:
 566               		.cfi_def_cfa_offset 9
 567               		.cfi_offset 28, -8
 568 000e DF93      		push r29
 569               	.LCFI20:
 570               		.cfi_def_cfa_offset 10
 571               		.cfi_offset 29, -9
 572               	/* prologue: function */
 573               	/* frame size = 0 */
 574               	/* stack size = 8 */
 575               	.L__stack_usage = 8
 576 0010 6B01      		movw r12,r22
 577 0012 7C01      		movw r14,r24
  99:../tmk_core/common/util.c ****     bits = (uint32_t)bitrev16(bits & 0x0000ffff)<<16 | bitrev16((bits & 0xffff0000)>>16);
 578               		.loc 1 99 0
 579 0014 CB01      		movw r24,r22
 580 0016 0E94 0000 		call bitrev16
 581               	.LVL63:
 582 001a EC01      		movw r28,r24
 583 001c C701      		movw r24,r14
 584 001e 0E94 0000 		call bitrev16
 585               	.LVL64:
 586 0022 AC01      		movw r20,r24
 587               	.LVL65:
 588 0024 CE01      		movw r24,r28
 589 0026 A0E0      		ldi r26,0
 590 0028 B0E0      		ldi r27,0
 591 002a DC01      		movw r26,r24
 592 002c 9927      		clr r25
 593 002e 8827      		clr r24
 594 0030 60E0      		ldi r22,0
 595 0032 70E0      		ldi r23,0
 596 0034 8C01      		movw r16,r24
 597 0036 9D01      		movw r18,r26
 598 0038 042B      		or r16,r20
 599 003a 152B      		or r17,r21
 600 003c 262B      		or r18,r22
 601 003e 372B      		or r19,r23
 602 0040 C901      		movw r24,r18
 603 0042 B801      		movw r22,r16
 604               	/* epilogue start */
 100:../tmk_core/common/util.c ****     return bits;
 101:../tmk_core/common/util.c **** }
 605               		.loc 1 101 0
 606 0044 DF91      		pop r29
 607 0046 CF91      		pop r28
 608               	.LVL66:
 609 0048 1F91      		pop r17
 610 004a 0F91      		pop r16
 611 004c FF90      		pop r15
 612 004e EF90      		pop r14
 613 0050 DF90      		pop r13
 614 0052 CF90      		pop r12
 615 0054 0895      		ret
 616               		.cfi_endproc
 617               	.LFE8:
 619               		.text
 620               	.Letext0:
 621               		.file 2 "/usr/local/Cellar/avr-gcc/4.9.3/avr/include/stdint.h"