   1               		.file	"lufa.c"
   2               	__SP_H__ = 0x3e
   3               	__SP_L__ = 0x3d
   4               	__SREG__ = 0x3f
   5               	__tmp_reg__ = 0
   6               	__zero_reg__ = 1
   7               		.text
   8               	.Ltext0:
   9               		.cfi_sections	.debug_frame
  10               		.section	.text.keyboard_leds,"ax",@progbits
  12               	keyboard_leds:
  13               	.LFB117:
  14               		.file 1 "../tmk_core/protocol/lufa/lufa.c"
   1:../tmk_core/protocol/lufa/lufa.c **** /* 
   2:../tmk_core/protocol/lufa/lufa.c ****  * Copyright 2012 Jun Wako <wakojun@gmail.com>
   3:../tmk_core/protocol/lufa/lufa.c ****  * This file is based on:
   4:../tmk_core/protocol/lufa/lufa.c ****  *     LUFA-120219/Demos/Device/Lowlevel/KeyboardMouse
   5:../tmk_core/protocol/lufa/lufa.c ****  *     LUFA-120219/Demos/Device/Lowlevel/GenericHID
   6:../tmk_core/protocol/lufa/lufa.c ****  */
   7:../tmk_core/protocol/lufa/lufa.c **** 
   8:../tmk_core/protocol/lufa/lufa.c **** /*
   9:../tmk_core/protocol/lufa/lufa.c ****              LUFA Library
  10:../tmk_core/protocol/lufa/lufa.c ****      Copyright (C) Dean Camera, 2012.
  11:../tmk_core/protocol/lufa/lufa.c **** 
  12:../tmk_core/protocol/lufa/lufa.c ****   dean [at] fourwalledcubicle [dot] com
  13:../tmk_core/protocol/lufa/lufa.c ****            www.lufa-lib.org
  14:../tmk_core/protocol/lufa/lufa.c **** */
  15:../tmk_core/protocol/lufa/lufa.c **** 
  16:../tmk_core/protocol/lufa/lufa.c **** /*
  17:../tmk_core/protocol/lufa/lufa.c ****   Copyright 2012  Dean Camera (dean [at] fourwalledcubicle [dot] com)
  18:../tmk_core/protocol/lufa/lufa.c ****   Copyright 2010  Denver Gingerich (denver [at] ossguy [dot] com)
  19:../tmk_core/protocol/lufa/lufa.c **** 
  20:../tmk_core/protocol/lufa/lufa.c ****   Permission to use, copy, modify, distribute, and sell this
  21:../tmk_core/protocol/lufa/lufa.c ****   software and its documentation for any purpose is hereby granted
  22:../tmk_core/protocol/lufa/lufa.c ****   without fee, provided that the above copyright notice appear in
  23:../tmk_core/protocol/lufa/lufa.c ****   all copies and that both that the copyright notice and this
  24:../tmk_core/protocol/lufa/lufa.c ****   permission notice and warranty disclaimer appear in supporting
  25:../tmk_core/protocol/lufa/lufa.c ****   documentation, and that the name of the author not be used in
  26:../tmk_core/protocol/lufa/lufa.c ****   advertising or publicity pertaining to distribution of the
  27:../tmk_core/protocol/lufa/lufa.c ****   software without specific, written prior permission.
  28:../tmk_core/protocol/lufa/lufa.c **** 
  29:../tmk_core/protocol/lufa/lufa.c ****   The author disclaim all warranties with regard to this
  30:../tmk_core/protocol/lufa/lufa.c ****   software, including all implied warranties of merchantability
  31:../tmk_core/protocol/lufa/lufa.c ****   and fitness.  In no event shall the author be liable for any
  32:../tmk_core/protocol/lufa/lufa.c ****   special, indirect or consequential damages or any damages
  33:../tmk_core/protocol/lufa/lufa.c ****   whatsoever resulting from loss of use, data or profits, whether
  34:../tmk_core/protocol/lufa/lufa.c ****   in an action of contract, negligence or other tortious action,
  35:../tmk_core/protocol/lufa/lufa.c ****   arising out of or in connection with the use or performance of
  36:../tmk_core/protocol/lufa/lufa.c ****   this software.
  37:../tmk_core/protocol/lufa/lufa.c **** */
  38:../tmk_core/protocol/lufa/lufa.c **** 
  39:../tmk_core/protocol/lufa/lufa.c **** #include "report.h"
  40:../tmk_core/protocol/lufa/lufa.c **** #include "host.h"
  41:../tmk_core/protocol/lufa/lufa.c **** #include "host_driver.h"
  42:../tmk_core/protocol/lufa/lufa.c **** #include "keyboard.h"
  43:../tmk_core/protocol/lufa/lufa.c **** #include "action.h"
  44:../tmk_core/protocol/lufa/lufa.c **** #include "led.h"
  45:../tmk_core/protocol/lufa/lufa.c **** #include "sendchar.h"
  46:../tmk_core/protocol/lufa/lufa.c **** #include "debug.h"
  47:../tmk_core/protocol/lufa/lufa.c **** #ifdef SLEEP_LED_ENABLE
  48:../tmk_core/protocol/lufa/lufa.c **** #include "sleep_led.h"
  49:../tmk_core/protocol/lufa/lufa.c **** #endif
  50:../tmk_core/protocol/lufa/lufa.c **** #include "suspend.h"
  51:../tmk_core/protocol/lufa/lufa.c **** #include "hook.h"
  52:../tmk_core/protocol/lufa/lufa.c **** 
  53:../tmk_core/protocol/lufa/lufa.c **** #include "descriptor.h"
  54:../tmk_core/protocol/lufa/lufa.c **** #include "lufa.h"
  55:../tmk_core/protocol/lufa/lufa.c **** 
  56:../tmk_core/protocol/lufa/lufa.c **** uint8_t keyboard_idle = 0;
  57:../tmk_core/protocol/lufa/lufa.c **** /* 0: Boot Protocol, 1: Report Protocol(default) */
  58:../tmk_core/protocol/lufa/lufa.c **** uint8_t keyboard_protocol = 1;
  59:../tmk_core/protocol/lufa/lufa.c **** static uint8_t keyboard_led_stats = 0;
  60:../tmk_core/protocol/lufa/lufa.c **** 
  61:../tmk_core/protocol/lufa/lufa.c **** static report_keyboard_t keyboard_report_sent;
  62:../tmk_core/protocol/lufa/lufa.c **** 
  63:../tmk_core/protocol/lufa/lufa.c **** 
  64:../tmk_core/protocol/lufa/lufa.c **** /* Host driver */
  65:../tmk_core/protocol/lufa/lufa.c **** static uint8_t keyboard_leds(void);
  66:../tmk_core/protocol/lufa/lufa.c **** static void send_keyboard(report_keyboard_t *report);
  67:../tmk_core/protocol/lufa/lufa.c **** static void send_mouse(report_mouse_t *report);
  68:../tmk_core/protocol/lufa/lufa.c **** static void send_system(uint16_t data);
  69:../tmk_core/protocol/lufa/lufa.c **** static void send_consumer(uint16_t data);
  70:../tmk_core/protocol/lufa/lufa.c **** host_driver_t lufa_driver = {
  71:../tmk_core/protocol/lufa/lufa.c ****     keyboard_leds,
  72:../tmk_core/protocol/lufa/lufa.c ****     send_keyboard,
  73:../tmk_core/protocol/lufa/lufa.c ****     send_mouse,
  74:../tmk_core/protocol/lufa/lufa.c ****     send_system,
  75:../tmk_core/protocol/lufa/lufa.c ****     send_consumer
  76:../tmk_core/protocol/lufa/lufa.c **** };
  77:../tmk_core/protocol/lufa/lufa.c **** 
  78:../tmk_core/protocol/lufa/lufa.c **** 
  79:../tmk_core/protocol/lufa/lufa.c **** /*******************************************************************************
  80:../tmk_core/protocol/lufa/lufa.c ****  * Console
  81:../tmk_core/protocol/lufa/lufa.c ****  ******************************************************************************/
  82:../tmk_core/protocol/lufa/lufa.c **** #ifdef CONSOLE_ENABLE
  83:../tmk_core/protocol/lufa/lufa.c **** static void Console_Task(void)
  84:../tmk_core/protocol/lufa/lufa.c **** {
  85:../tmk_core/protocol/lufa/lufa.c ****     /* Device must be connected and configured for the task to run */
  86:../tmk_core/protocol/lufa/lufa.c ****     if (USB_DeviceState != DEVICE_STATE_Configured)
  87:../tmk_core/protocol/lufa/lufa.c ****         return;
  88:../tmk_core/protocol/lufa/lufa.c **** 
  89:../tmk_core/protocol/lufa/lufa.c ****     uint8_t ep = Endpoint_GetCurrentEndpoint();
  90:../tmk_core/protocol/lufa/lufa.c **** 
  91:../tmk_core/protocol/lufa/lufa.c **** #if 0
  92:../tmk_core/protocol/lufa/lufa.c ****     // TODO: impl receivechar()/recvchar()
  93:../tmk_core/protocol/lufa/lufa.c ****     Endpoint_SelectEndpoint(CONSOLE_OUT_EPNUM);
  94:../tmk_core/protocol/lufa/lufa.c **** 
  95:../tmk_core/protocol/lufa/lufa.c ****     /* Check to see if a packet has been sent from the host */
  96:../tmk_core/protocol/lufa/lufa.c ****     if (Endpoint_IsOUTReceived())
  97:../tmk_core/protocol/lufa/lufa.c ****     {
  98:../tmk_core/protocol/lufa/lufa.c ****         /* Check to see if the packet contains data */
  99:../tmk_core/protocol/lufa/lufa.c ****         if (Endpoint_IsReadWriteAllowed())
 100:../tmk_core/protocol/lufa/lufa.c ****         {
 101:../tmk_core/protocol/lufa/lufa.c ****             /* Create a temporary buffer to hold the read in report from the host */
 102:../tmk_core/protocol/lufa/lufa.c ****             uint8_t ConsoleData[CONSOLE_EPSIZE];
 103:../tmk_core/protocol/lufa/lufa.c ****  
 104:../tmk_core/protocol/lufa/lufa.c ****             /* Read Console Report Data */
 105:../tmk_core/protocol/lufa/lufa.c ****             Endpoint_Read_Stream_LE(&ConsoleData, sizeof(ConsoleData), NULL);
 106:../tmk_core/protocol/lufa/lufa.c ****  
 107:../tmk_core/protocol/lufa/lufa.c ****             /* Process Console Report Data */
 108:../tmk_core/protocol/lufa/lufa.c ****             //ProcessConsoleHIDReport(ConsoleData);
 109:../tmk_core/protocol/lufa/lufa.c ****         }
 110:../tmk_core/protocol/lufa/lufa.c **** 
 111:../tmk_core/protocol/lufa/lufa.c ****         /* Finalize the stream transfer to send the last packet */
 112:../tmk_core/protocol/lufa/lufa.c ****         Endpoint_ClearOUT();
 113:../tmk_core/protocol/lufa/lufa.c ****     }
 114:../tmk_core/protocol/lufa/lufa.c **** #endif
 115:../tmk_core/protocol/lufa/lufa.c **** 
 116:../tmk_core/protocol/lufa/lufa.c ****     /* IN packet */
 117:../tmk_core/protocol/lufa/lufa.c ****     Endpoint_SelectEndpoint(CONSOLE_IN_EPNUM);
 118:../tmk_core/protocol/lufa/lufa.c ****     if (!Endpoint_IsEnabled() || !Endpoint_IsConfigured()) {
 119:../tmk_core/protocol/lufa/lufa.c ****         Endpoint_SelectEndpoint(ep);
 120:../tmk_core/protocol/lufa/lufa.c ****         return;
 121:../tmk_core/protocol/lufa/lufa.c ****     }
 122:../tmk_core/protocol/lufa/lufa.c **** 
 123:../tmk_core/protocol/lufa/lufa.c ****     // fill empty bank
 124:../tmk_core/protocol/lufa/lufa.c ****     while (Endpoint_IsReadWriteAllowed())
 125:../tmk_core/protocol/lufa/lufa.c ****         Endpoint_Write_8(0);
 126:../tmk_core/protocol/lufa/lufa.c **** 
 127:../tmk_core/protocol/lufa/lufa.c ****     // flash senchar packet
 128:../tmk_core/protocol/lufa/lufa.c ****     if (Endpoint_IsINReady()) {
 129:../tmk_core/protocol/lufa/lufa.c ****         Endpoint_ClearIN();
 130:../tmk_core/protocol/lufa/lufa.c ****     }
 131:../tmk_core/protocol/lufa/lufa.c **** 
 132:../tmk_core/protocol/lufa/lufa.c ****     Endpoint_SelectEndpoint(ep);
 133:../tmk_core/protocol/lufa/lufa.c **** }
 134:../tmk_core/protocol/lufa/lufa.c **** #else
 135:../tmk_core/protocol/lufa/lufa.c **** static void Console_Task(void)
 136:../tmk_core/protocol/lufa/lufa.c **** {
 137:../tmk_core/protocol/lufa/lufa.c **** }
 138:../tmk_core/protocol/lufa/lufa.c **** #endif
 139:../tmk_core/protocol/lufa/lufa.c **** 
 140:../tmk_core/protocol/lufa/lufa.c **** 
 141:../tmk_core/protocol/lufa/lufa.c **** /*******************************************************************************
 142:../tmk_core/protocol/lufa/lufa.c ****  * USB Events
 143:../tmk_core/protocol/lufa/lufa.c ****  ******************************************************************************/
 144:../tmk_core/protocol/lufa/lufa.c **** /*
 145:../tmk_core/protocol/lufa/lufa.c ****  * Event Order of Plug in:
 146:../tmk_core/protocol/lufa/lufa.c ****  * 0) EVENT_USB_Device_Connect
 147:../tmk_core/protocol/lufa/lufa.c ****  * 1) EVENT_USB_Device_Suspend
 148:../tmk_core/protocol/lufa/lufa.c ****  * 2) EVENT_USB_Device_Reset
 149:../tmk_core/protocol/lufa/lufa.c ****  * 3) EVENT_USB_Device_Wake
 150:../tmk_core/protocol/lufa/lufa.c **** */
 151:../tmk_core/protocol/lufa/lufa.c **** void EVENT_USB_Device_Connect(void)
 152:../tmk_core/protocol/lufa/lufa.c **** {
 153:../tmk_core/protocol/lufa/lufa.c ****     print("[C]");
 154:../tmk_core/protocol/lufa/lufa.c ****     /* For battery powered device */
 155:../tmk_core/protocol/lufa/lufa.c ****     if (!USB_IsInitialized) {
 156:../tmk_core/protocol/lufa/lufa.c ****         USB_Disable();
 157:../tmk_core/protocol/lufa/lufa.c ****         USB_Init();
 158:../tmk_core/protocol/lufa/lufa.c ****         USB_Device_EnableSOFEvents();
 159:../tmk_core/protocol/lufa/lufa.c ****     }
 160:../tmk_core/protocol/lufa/lufa.c **** }
 161:../tmk_core/protocol/lufa/lufa.c **** 
 162:../tmk_core/protocol/lufa/lufa.c **** void EVENT_USB_Device_Disconnect(void)
 163:../tmk_core/protocol/lufa/lufa.c **** {
 164:../tmk_core/protocol/lufa/lufa.c ****     print("[D]");
 165:../tmk_core/protocol/lufa/lufa.c ****     /* For battery powered device */
 166:../tmk_core/protocol/lufa/lufa.c ****     USB_IsInitialized = false;
 167:../tmk_core/protocol/lufa/lufa.c **** /* TODO: This doesn't work. After several plug in/outs can not be enumerated. 
 168:../tmk_core/protocol/lufa/lufa.c ****     if (USB_IsInitialized) {
 169:../tmk_core/protocol/lufa/lufa.c ****         USB_Disable();  // Disable all interrupts
 170:../tmk_core/protocol/lufa/lufa.c **** 	USB_Controller_Enable();
 171:../tmk_core/protocol/lufa/lufa.c ****         USB_INT_Enable(USB_INT_VBUSTI);
 172:../tmk_core/protocol/lufa/lufa.c ****     }
 173:../tmk_core/protocol/lufa/lufa.c **** */
 174:../tmk_core/protocol/lufa/lufa.c **** }
 175:../tmk_core/protocol/lufa/lufa.c **** 
 176:../tmk_core/protocol/lufa/lufa.c **** void EVENT_USB_Device_Reset(void)
 177:../tmk_core/protocol/lufa/lufa.c **** {
 178:../tmk_core/protocol/lufa/lufa.c ****     print("[R]");
 179:../tmk_core/protocol/lufa/lufa.c **** }
 180:../tmk_core/protocol/lufa/lufa.c **** 
 181:../tmk_core/protocol/lufa/lufa.c **** void EVENT_USB_Device_Suspend()
 182:../tmk_core/protocol/lufa/lufa.c **** {
 183:../tmk_core/protocol/lufa/lufa.c ****     print("[S]");
 184:../tmk_core/protocol/lufa/lufa.c ****     hook_usb_suspend_entry();
 185:../tmk_core/protocol/lufa/lufa.c **** }
 186:../tmk_core/protocol/lufa/lufa.c **** 
 187:../tmk_core/protocol/lufa/lufa.c **** void EVENT_USB_Device_WakeUp()
 188:../tmk_core/protocol/lufa/lufa.c **** {
 189:../tmk_core/protocol/lufa/lufa.c ****     print("[W]");
 190:../tmk_core/protocol/lufa/lufa.c ****     hook_usb_wakeup();
 191:../tmk_core/protocol/lufa/lufa.c **** }
 192:../tmk_core/protocol/lufa/lufa.c **** 
 193:../tmk_core/protocol/lufa/lufa.c **** #ifdef CONSOLE_ENABLE
 194:../tmk_core/protocol/lufa/lufa.c **** static bool console_flush = false;
 195:../tmk_core/protocol/lufa/lufa.c **** #define CONSOLE_FLUSH_SET(b)   do { \
 196:../tmk_core/protocol/lufa/lufa.c ****     uint8_t sreg = SREG; cli(); console_flush = b; SREG = sreg; \
 197:../tmk_core/protocol/lufa/lufa.c **** } while (0)
 198:../tmk_core/protocol/lufa/lufa.c **** 
 199:../tmk_core/protocol/lufa/lufa.c **** // called every 1ms
 200:../tmk_core/protocol/lufa/lufa.c **** void EVENT_USB_Device_StartOfFrame(void)
 201:../tmk_core/protocol/lufa/lufa.c **** {
 202:../tmk_core/protocol/lufa/lufa.c ****     static uint8_t count;
 203:../tmk_core/protocol/lufa/lufa.c ****     if (++count % 50) return;
 204:../tmk_core/protocol/lufa/lufa.c ****     count = 0;
 205:../tmk_core/protocol/lufa/lufa.c **** 
 206:../tmk_core/protocol/lufa/lufa.c ****     if (!console_flush) return;
 207:../tmk_core/protocol/lufa/lufa.c ****     Console_Task();
 208:../tmk_core/protocol/lufa/lufa.c ****     console_flush = false;
 209:../tmk_core/protocol/lufa/lufa.c **** }
 210:../tmk_core/protocol/lufa/lufa.c **** #endif
 211:../tmk_core/protocol/lufa/lufa.c **** 
 212:../tmk_core/protocol/lufa/lufa.c **** /** Event handler for the USB_ConfigurationChanged event.
 213:../tmk_core/protocol/lufa/lufa.c ****  * This is fired when the host sets the current configuration of the USB device after enumeration.
 214:../tmk_core/protocol/lufa/lufa.c ****  *
 215:../tmk_core/protocol/lufa/lufa.c ****  * ATMega32u2 supports dual bank(ping-pong mode) only on endpoint 3 and 4,
 216:../tmk_core/protocol/lufa/lufa.c ****  * it is safe to use singl bank for all endpoints.
 217:../tmk_core/protocol/lufa/lufa.c ****  */
 218:../tmk_core/protocol/lufa/lufa.c **** void EVENT_USB_Device_ConfigurationChanged(void)
 219:../tmk_core/protocol/lufa/lufa.c **** {
 220:../tmk_core/protocol/lufa/lufa.c ****     bool ConfigSuccess = true;
 221:../tmk_core/protocol/lufa/lufa.c **** 
 222:../tmk_core/protocol/lufa/lufa.c ****     /* Setup Keyboard HID Report Endpoints */
 223:../tmk_core/protocol/lufa/lufa.c ****     ConfigSuccess &= ENDPOINT_CONFIG(KEYBOARD_IN_EPNUM, EP_TYPE_INTERRUPT, ENDPOINT_DIR_IN,
 224:../tmk_core/protocol/lufa/lufa.c ****                                      KEYBOARD_EPSIZE, ENDPOINT_BANK_SINGLE);
 225:../tmk_core/protocol/lufa/lufa.c **** 
 226:../tmk_core/protocol/lufa/lufa.c **** #ifdef MOUSE_ENABLE
 227:../tmk_core/protocol/lufa/lufa.c ****     /* Setup Mouse HID Report Endpoint */
 228:../tmk_core/protocol/lufa/lufa.c ****     ConfigSuccess &= ENDPOINT_CONFIG(MOUSE_IN_EPNUM, EP_TYPE_INTERRUPT, ENDPOINT_DIR_IN,
 229:../tmk_core/protocol/lufa/lufa.c ****                                      MOUSE_EPSIZE, ENDPOINT_BANK_SINGLE);
 230:../tmk_core/protocol/lufa/lufa.c **** #endif
 231:../tmk_core/protocol/lufa/lufa.c **** 
 232:../tmk_core/protocol/lufa/lufa.c **** #ifdef EXTRAKEY_ENABLE
 233:../tmk_core/protocol/lufa/lufa.c ****     /* Setup Extra HID Report Endpoint */
 234:../tmk_core/protocol/lufa/lufa.c ****     ConfigSuccess &= ENDPOINT_CONFIG(EXTRAKEY_IN_EPNUM, EP_TYPE_INTERRUPT, ENDPOINT_DIR_IN,
 235:../tmk_core/protocol/lufa/lufa.c ****                                      EXTRAKEY_EPSIZE, ENDPOINT_BANK_SINGLE);
 236:../tmk_core/protocol/lufa/lufa.c **** #endif
 237:../tmk_core/protocol/lufa/lufa.c **** 
 238:../tmk_core/protocol/lufa/lufa.c **** #ifdef CONSOLE_ENABLE
 239:../tmk_core/protocol/lufa/lufa.c ****     /* Setup Console HID Report Endpoints */
 240:../tmk_core/protocol/lufa/lufa.c ****     ConfigSuccess &= ENDPOINT_CONFIG(CONSOLE_IN_EPNUM, EP_TYPE_INTERRUPT, ENDPOINT_DIR_IN,
 241:../tmk_core/protocol/lufa/lufa.c ****                                      CONSOLE_EPSIZE, ENDPOINT_BANK_SINGLE);
 242:../tmk_core/protocol/lufa/lufa.c **** #if 0
 243:../tmk_core/protocol/lufa/lufa.c ****     ConfigSuccess &= ENDPOINT_CONFIG(CONSOLE_OUT_EPNUM, EP_TYPE_INTERRUPT, ENDPOINT_DIR_OUT,
 244:../tmk_core/protocol/lufa/lufa.c ****                                      CONSOLE_EPSIZE, ENDPOINT_BANK_SINGLE);
 245:../tmk_core/protocol/lufa/lufa.c **** #endif
 246:../tmk_core/protocol/lufa/lufa.c **** #endif
 247:../tmk_core/protocol/lufa/lufa.c **** 
 248:../tmk_core/protocol/lufa/lufa.c **** #ifdef NKRO_ENABLE
 249:../tmk_core/protocol/lufa/lufa.c ****     /* Setup NKRO HID Report Endpoints */
 250:../tmk_core/protocol/lufa/lufa.c ****     ConfigSuccess &= ENDPOINT_CONFIG(NKRO_IN_EPNUM, EP_TYPE_INTERRUPT, ENDPOINT_DIR_IN,
 251:../tmk_core/protocol/lufa/lufa.c ****                                      NKRO_EPSIZE, ENDPOINT_BANK_SINGLE);
 252:../tmk_core/protocol/lufa/lufa.c **** #endif
 253:../tmk_core/protocol/lufa/lufa.c **** }
 254:../tmk_core/protocol/lufa/lufa.c **** 
 255:../tmk_core/protocol/lufa/lufa.c **** /*
 256:../tmk_core/protocol/lufa/lufa.c **** Appendix G: HID Request Support Requirements
 257:../tmk_core/protocol/lufa/lufa.c **** 
 258:../tmk_core/protocol/lufa/lufa.c **** The following table enumerates the requests that need to be supported by various types of HID class
 259:../tmk_core/protocol/lufa/lufa.c **** 
 260:../tmk_core/protocol/lufa/lufa.c **** Device type     GetReport   SetReport   GetIdle     SetIdle     GetProtocol SetProtocol
 261:../tmk_core/protocol/lufa/lufa.c **** ------------------------------------------------------------------------------------------
 262:../tmk_core/protocol/lufa/lufa.c **** Boot Mouse      Required    Optional    Optional    Optional    Required    Required
 263:../tmk_core/protocol/lufa/lufa.c **** Non-Boot Mouse  Required    Optional    Optional    Optional    Optional    Optional
 264:../tmk_core/protocol/lufa/lufa.c **** Boot Keyboard   Required    Optional    Required    Required    Required    Required
 265:../tmk_core/protocol/lufa/lufa.c **** Non-Boot Keybrd Required    Optional    Required    Required    Optional    Optional
 266:../tmk_core/protocol/lufa/lufa.c **** Other Device    Required    Optional    Optional    Optional    Optional    Optional
 267:../tmk_core/protocol/lufa/lufa.c **** */
 268:../tmk_core/protocol/lufa/lufa.c **** /** Event handler for the USB_ControlRequest event.
 269:../tmk_core/protocol/lufa/lufa.c ****  *  This is fired before passing along unhandled control requests to the library for processing int
 270:../tmk_core/protocol/lufa/lufa.c ****  */
 271:../tmk_core/protocol/lufa/lufa.c **** void EVENT_USB_Device_ControlRequest(void)
 272:../tmk_core/protocol/lufa/lufa.c **** {
 273:../tmk_core/protocol/lufa/lufa.c ****     uint8_t* ReportData = NULL;
 274:../tmk_core/protocol/lufa/lufa.c ****     uint8_t  ReportSize = 0;
 275:../tmk_core/protocol/lufa/lufa.c **** 
 276:../tmk_core/protocol/lufa/lufa.c ****     /* Handle HID Class specific requests */
 277:../tmk_core/protocol/lufa/lufa.c ****     switch (USB_ControlRequest.bRequest)
 278:../tmk_core/protocol/lufa/lufa.c ****     {
 279:../tmk_core/protocol/lufa/lufa.c ****         case HID_REQ_GetReport:
 280:../tmk_core/protocol/lufa/lufa.c ****             if (USB_ControlRequest.bmRequestType == (REQDIR_DEVICETOHOST | REQTYPE_CLASS | REQREC_I
 281:../tmk_core/protocol/lufa/lufa.c ****             {
 282:../tmk_core/protocol/lufa/lufa.c ****                 Endpoint_ClearSETUP();
 283:../tmk_core/protocol/lufa/lufa.c **** 
 284:../tmk_core/protocol/lufa/lufa.c ****                 // Interface
 285:../tmk_core/protocol/lufa/lufa.c ****                 switch (USB_ControlRequest.wIndex) {
 286:../tmk_core/protocol/lufa/lufa.c ****                 case KEYBOARD_INTERFACE:
 287:../tmk_core/protocol/lufa/lufa.c ****                     // TODO: test/check
 288:../tmk_core/protocol/lufa/lufa.c ****                     ReportData = (uint8_t*)&keyboard_report_sent;
 289:../tmk_core/protocol/lufa/lufa.c ****                     ReportSize = sizeof(keyboard_report_sent);
 290:../tmk_core/protocol/lufa/lufa.c ****                     break;
 291:../tmk_core/protocol/lufa/lufa.c ****                 }
 292:../tmk_core/protocol/lufa/lufa.c **** 
 293:../tmk_core/protocol/lufa/lufa.c ****                 /* Write the report data to the control endpoint */
 294:../tmk_core/protocol/lufa/lufa.c ****                 Endpoint_Write_Control_Stream_LE(ReportData, ReportSize);
 295:../tmk_core/protocol/lufa/lufa.c ****                 Endpoint_ClearOUT();
 296:../tmk_core/protocol/lufa/lufa.c ****             }
 297:../tmk_core/protocol/lufa/lufa.c **** 
 298:../tmk_core/protocol/lufa/lufa.c ****             break;
 299:../tmk_core/protocol/lufa/lufa.c ****         case HID_REQ_SetReport:
 300:../tmk_core/protocol/lufa/lufa.c ****             if (USB_ControlRequest.bmRequestType == (REQDIR_HOSTTODEVICE | REQTYPE_CLASS | REQREC_I
 301:../tmk_core/protocol/lufa/lufa.c ****             {
 302:../tmk_core/protocol/lufa/lufa.c **** 
 303:../tmk_core/protocol/lufa/lufa.c ****                 // Interface
 304:../tmk_core/protocol/lufa/lufa.c ****                 switch (USB_ControlRequest.wIndex) {
 305:../tmk_core/protocol/lufa/lufa.c ****                 case KEYBOARD_INTERFACE:
 306:../tmk_core/protocol/lufa/lufa.c **** #ifdef NKRO_ENABLE
 307:../tmk_core/protocol/lufa/lufa.c ****                 case NKRO_INTERFACE:
 308:../tmk_core/protocol/lufa/lufa.c **** #endif
 309:../tmk_core/protocol/lufa/lufa.c ****                     Endpoint_ClearSETUP();
 310:../tmk_core/protocol/lufa/lufa.c **** 
 311:../tmk_core/protocol/lufa/lufa.c ****                     while (!(Endpoint_IsOUTReceived())) {
 312:../tmk_core/protocol/lufa/lufa.c ****                         if (USB_DeviceState == DEVICE_STATE_Unattached)
 313:../tmk_core/protocol/lufa/lufa.c ****                           return;
 314:../tmk_core/protocol/lufa/lufa.c ****                     }
 315:../tmk_core/protocol/lufa/lufa.c ****                     keyboard_led_stats = Endpoint_Read_8();
 316:../tmk_core/protocol/lufa/lufa.c **** 
 317:../tmk_core/protocol/lufa/lufa.c ****                     Endpoint_ClearOUT();
 318:../tmk_core/protocol/lufa/lufa.c ****                     Endpoint_ClearStatusStage();
 319:../tmk_core/protocol/lufa/lufa.c ****                     break;
 320:../tmk_core/protocol/lufa/lufa.c ****                 }
 321:../tmk_core/protocol/lufa/lufa.c **** 
 322:../tmk_core/protocol/lufa/lufa.c ****             }
 323:../tmk_core/protocol/lufa/lufa.c **** 
 324:../tmk_core/protocol/lufa/lufa.c ****             break;
 325:../tmk_core/protocol/lufa/lufa.c **** 
 326:../tmk_core/protocol/lufa/lufa.c ****         case HID_REQ_GetProtocol:
 327:../tmk_core/protocol/lufa/lufa.c ****             if (USB_ControlRequest.bmRequestType == (REQDIR_DEVICETOHOST | REQTYPE_CLASS | REQREC_I
 328:../tmk_core/protocol/lufa/lufa.c ****             {
 329:../tmk_core/protocol/lufa/lufa.c ****                 if (USB_ControlRequest.wIndex == KEYBOARD_INTERFACE) {
 330:../tmk_core/protocol/lufa/lufa.c ****                     Endpoint_ClearSETUP();
 331:../tmk_core/protocol/lufa/lufa.c ****                     while (!(Endpoint_IsINReady()));
 332:../tmk_core/protocol/lufa/lufa.c ****                     Endpoint_Write_8(keyboard_protocol);
 333:../tmk_core/protocol/lufa/lufa.c ****                     Endpoint_ClearIN();
 334:../tmk_core/protocol/lufa/lufa.c ****                     Endpoint_ClearStatusStage();
 335:../tmk_core/protocol/lufa/lufa.c ****                 }
 336:../tmk_core/protocol/lufa/lufa.c ****             }
 337:../tmk_core/protocol/lufa/lufa.c **** 
 338:../tmk_core/protocol/lufa/lufa.c ****             break;
 339:../tmk_core/protocol/lufa/lufa.c ****         case HID_REQ_SetProtocol:
 340:../tmk_core/protocol/lufa/lufa.c ****             if (USB_ControlRequest.bmRequestType == (REQDIR_HOSTTODEVICE | REQTYPE_CLASS | REQREC_I
 341:../tmk_core/protocol/lufa/lufa.c ****             {
 342:../tmk_core/protocol/lufa/lufa.c ****                 if (USB_ControlRequest.wIndex == KEYBOARD_INTERFACE) {
 343:../tmk_core/protocol/lufa/lufa.c ****                     Endpoint_ClearSETUP();
 344:../tmk_core/protocol/lufa/lufa.c ****                     Endpoint_ClearStatusStage();
 345:../tmk_core/protocol/lufa/lufa.c **** 
 346:../tmk_core/protocol/lufa/lufa.c ****                     keyboard_protocol = (USB_ControlRequest.wValue & 0xFF);
 347:../tmk_core/protocol/lufa/lufa.c ****                     clear_keyboard();
 348:../tmk_core/protocol/lufa/lufa.c ****                 }
 349:../tmk_core/protocol/lufa/lufa.c ****             }
 350:../tmk_core/protocol/lufa/lufa.c **** 
 351:../tmk_core/protocol/lufa/lufa.c ****             break;
 352:../tmk_core/protocol/lufa/lufa.c ****         case HID_REQ_SetIdle:
 353:../tmk_core/protocol/lufa/lufa.c ****             if (USB_ControlRequest.bmRequestType == (REQDIR_HOSTTODEVICE | REQTYPE_CLASS | REQREC_I
 354:../tmk_core/protocol/lufa/lufa.c ****             {
 355:../tmk_core/protocol/lufa/lufa.c ****                 Endpoint_ClearSETUP();
 356:../tmk_core/protocol/lufa/lufa.c ****                 Endpoint_ClearStatusStage();
 357:../tmk_core/protocol/lufa/lufa.c **** 
 358:../tmk_core/protocol/lufa/lufa.c ****                 keyboard_idle = ((USB_ControlRequest.wValue & 0xFF00) >> 8);
 359:../tmk_core/protocol/lufa/lufa.c ****             }
 360:../tmk_core/protocol/lufa/lufa.c **** 
 361:../tmk_core/protocol/lufa/lufa.c ****             break;
 362:../tmk_core/protocol/lufa/lufa.c ****         case HID_REQ_GetIdle:
 363:../tmk_core/protocol/lufa/lufa.c ****             if (USB_ControlRequest.bmRequestType == (REQDIR_DEVICETOHOST | REQTYPE_CLASS | REQREC_I
 364:../tmk_core/protocol/lufa/lufa.c ****             {
 365:../tmk_core/protocol/lufa/lufa.c ****                 Endpoint_ClearSETUP();
 366:../tmk_core/protocol/lufa/lufa.c ****                 while (!(Endpoint_IsINReady()));
 367:../tmk_core/protocol/lufa/lufa.c ****                 Endpoint_Write_8(keyboard_idle);
 368:../tmk_core/protocol/lufa/lufa.c ****                 Endpoint_ClearIN();
 369:../tmk_core/protocol/lufa/lufa.c ****                 Endpoint_ClearStatusStage();
 370:../tmk_core/protocol/lufa/lufa.c ****             }
 371:../tmk_core/protocol/lufa/lufa.c **** 
 372:../tmk_core/protocol/lufa/lufa.c ****             break;
 373:../tmk_core/protocol/lufa/lufa.c ****     }
 374:../tmk_core/protocol/lufa/lufa.c **** }
 375:../tmk_core/protocol/lufa/lufa.c **** 
 376:../tmk_core/protocol/lufa/lufa.c **** /*******************************************************************************
 377:../tmk_core/protocol/lufa/lufa.c ****  * Host driver 
 378:../tmk_core/protocol/lufa/lufa.c ****  ******************************************************************************/
 379:../tmk_core/protocol/lufa/lufa.c **** static uint8_t keyboard_leds(void)
 380:../tmk_core/protocol/lufa/lufa.c **** {
  15               		.loc 1 380 0
  16               		.cfi_startproc
  17               	/* prologue: function */
  18               	/* frame size = 0 */
  19               	/* stack size = 0 */
  20               	.L__stack_usage = 0
 381:../tmk_core/protocol/lufa/lufa.c ****     return keyboard_led_stats;
 382:../tmk_core/protocol/lufa/lufa.c **** }
  21               		.loc 1 382 0
  22 0000 8091 0000 		lds r24,keyboard_led_stats
  23 0004 0895      		ret
  24               		.cfi_endproc
  25               	.LFE117:
  27               		.section	.text.sendchar,"ax",@progbits
  28               	.global	sendchar
  30               	sendchar:
  31               	.LFB122:
 383:../tmk_core/protocol/lufa/lufa.c **** 
 384:../tmk_core/protocol/lufa/lufa.c **** static void send_keyboard(report_keyboard_t *report)
 385:../tmk_core/protocol/lufa/lufa.c **** {
 386:../tmk_core/protocol/lufa/lufa.c ****     uint8_t timeout = 255;
 387:../tmk_core/protocol/lufa/lufa.c **** 
 388:../tmk_core/protocol/lufa/lufa.c ****     if (USB_DeviceState != DEVICE_STATE_Configured)
 389:../tmk_core/protocol/lufa/lufa.c ****         return;
 390:../tmk_core/protocol/lufa/lufa.c **** 
 391:../tmk_core/protocol/lufa/lufa.c ****     /* Select the Keyboard Report Endpoint */
 392:../tmk_core/protocol/lufa/lufa.c **** #ifdef NKRO_ENABLE
 393:../tmk_core/protocol/lufa/lufa.c ****     if (keyboard_protocol && keyboard_nkro) {
 394:../tmk_core/protocol/lufa/lufa.c ****         /* Report protocol - NKRO */
 395:../tmk_core/protocol/lufa/lufa.c ****         Endpoint_SelectEndpoint(NKRO_IN_EPNUM);
 396:../tmk_core/protocol/lufa/lufa.c **** 
 397:../tmk_core/protocol/lufa/lufa.c ****         /* Check if write ready for a polling interval around 1ms */
 398:../tmk_core/protocol/lufa/lufa.c ****         while (timeout-- && !Endpoint_IsReadWriteAllowed()) _delay_us(4);
 399:../tmk_core/protocol/lufa/lufa.c ****         if (!Endpoint_IsReadWriteAllowed()) return;
 400:../tmk_core/protocol/lufa/lufa.c **** 
 401:../tmk_core/protocol/lufa/lufa.c ****         /* Write Keyboard Report Data */
 402:../tmk_core/protocol/lufa/lufa.c ****         Endpoint_Write_Stream_LE(report, NKRO_EPSIZE, NULL);
 403:../tmk_core/protocol/lufa/lufa.c ****     }
 404:../tmk_core/protocol/lufa/lufa.c ****     else
 405:../tmk_core/protocol/lufa/lufa.c **** #endif
 406:../tmk_core/protocol/lufa/lufa.c ****     {
 407:../tmk_core/protocol/lufa/lufa.c ****         /* Boot protocol */
 408:../tmk_core/protocol/lufa/lufa.c ****         Endpoint_SelectEndpoint(KEYBOARD_IN_EPNUM);
 409:../tmk_core/protocol/lufa/lufa.c **** 
 410:../tmk_core/protocol/lufa/lufa.c ****         /* Check if write ready for a polling interval around 10ms */
 411:../tmk_core/protocol/lufa/lufa.c ****         while (timeout-- && !Endpoint_IsReadWriteAllowed()) _delay_us(40);
 412:../tmk_core/protocol/lufa/lufa.c ****         if (!Endpoint_IsReadWriteAllowed()) return;
 413:../tmk_core/protocol/lufa/lufa.c **** 
 414:../tmk_core/protocol/lufa/lufa.c ****         /* Write Keyboard Report Data */
 415:../tmk_core/protocol/lufa/lufa.c ****         Endpoint_Write_Stream_LE(report, KEYBOARD_EPSIZE, NULL);
 416:../tmk_core/protocol/lufa/lufa.c ****     }
 417:../tmk_core/protocol/lufa/lufa.c **** 
 418:../tmk_core/protocol/lufa/lufa.c ****     /* Finalize the stream transfer to send the last packet */
 419:../tmk_core/protocol/lufa/lufa.c ****     Endpoint_ClearIN();
 420:../tmk_core/protocol/lufa/lufa.c **** 
 421:../tmk_core/protocol/lufa/lufa.c ****     keyboard_report_sent = *report;
 422:../tmk_core/protocol/lufa/lufa.c **** }
 423:../tmk_core/protocol/lufa/lufa.c **** 
 424:../tmk_core/protocol/lufa/lufa.c **** static void send_mouse(report_mouse_t *report)
 425:../tmk_core/protocol/lufa/lufa.c **** {
 426:../tmk_core/protocol/lufa/lufa.c **** #ifdef MOUSE_ENABLE
 427:../tmk_core/protocol/lufa/lufa.c ****     uint8_t timeout = 255;
 428:../tmk_core/protocol/lufa/lufa.c **** 
 429:../tmk_core/protocol/lufa/lufa.c ****     if (USB_DeviceState != DEVICE_STATE_Configured)
 430:../tmk_core/protocol/lufa/lufa.c ****         return;
 431:../tmk_core/protocol/lufa/lufa.c **** 
 432:../tmk_core/protocol/lufa/lufa.c ****     /* Select the Mouse Report Endpoint */
 433:../tmk_core/protocol/lufa/lufa.c ****     Endpoint_SelectEndpoint(MOUSE_IN_EPNUM);
 434:../tmk_core/protocol/lufa/lufa.c **** 
 435:../tmk_core/protocol/lufa/lufa.c ****     /* Check if write ready for a polling interval around 10ms */
 436:../tmk_core/protocol/lufa/lufa.c ****     while (timeout-- && !Endpoint_IsReadWriteAllowed()) _delay_us(40);
 437:../tmk_core/protocol/lufa/lufa.c ****     if (!Endpoint_IsReadWriteAllowed()) return;
 438:../tmk_core/protocol/lufa/lufa.c **** 
 439:../tmk_core/protocol/lufa/lufa.c ****     /* Write Mouse Report Data */
 440:../tmk_core/protocol/lufa/lufa.c ****     Endpoint_Write_Stream_LE(report, sizeof(report_mouse_t), NULL);
 441:../tmk_core/protocol/lufa/lufa.c **** 
 442:../tmk_core/protocol/lufa/lufa.c ****     /* Finalize the stream transfer to send the last packet */
 443:../tmk_core/protocol/lufa/lufa.c ****     Endpoint_ClearIN();
 444:../tmk_core/protocol/lufa/lufa.c **** #endif
 445:../tmk_core/protocol/lufa/lufa.c **** }
 446:../tmk_core/protocol/lufa/lufa.c **** 
 447:../tmk_core/protocol/lufa/lufa.c **** static void send_system(uint16_t data)
 448:../tmk_core/protocol/lufa/lufa.c **** {
 449:../tmk_core/protocol/lufa/lufa.c ****     uint8_t timeout = 255;
 450:../tmk_core/protocol/lufa/lufa.c **** 
 451:../tmk_core/protocol/lufa/lufa.c ****     if (USB_DeviceState != DEVICE_STATE_Configured)
 452:../tmk_core/protocol/lufa/lufa.c ****         return;
 453:../tmk_core/protocol/lufa/lufa.c **** 
 454:../tmk_core/protocol/lufa/lufa.c ****     report_extra_t r = {
 455:../tmk_core/protocol/lufa/lufa.c ****         .report_id = REPORT_ID_SYSTEM,
 456:../tmk_core/protocol/lufa/lufa.c ****         .usage = data
 457:../tmk_core/protocol/lufa/lufa.c ****     };
 458:../tmk_core/protocol/lufa/lufa.c ****     Endpoint_SelectEndpoint(EXTRAKEY_IN_EPNUM);
 459:../tmk_core/protocol/lufa/lufa.c **** 
 460:../tmk_core/protocol/lufa/lufa.c ****     /* Check if write ready for a polling interval around 10ms */
 461:../tmk_core/protocol/lufa/lufa.c ****     while (timeout-- && !Endpoint_IsReadWriteAllowed()) _delay_us(40);
 462:../tmk_core/protocol/lufa/lufa.c ****     if (!Endpoint_IsReadWriteAllowed()) return;
 463:../tmk_core/protocol/lufa/lufa.c **** 
 464:../tmk_core/protocol/lufa/lufa.c ****     Endpoint_Write_Stream_LE(&r, sizeof(report_extra_t), NULL);
 465:../tmk_core/protocol/lufa/lufa.c ****     Endpoint_ClearIN();
 466:../tmk_core/protocol/lufa/lufa.c **** }
 467:../tmk_core/protocol/lufa/lufa.c **** 
 468:../tmk_core/protocol/lufa/lufa.c **** static void send_consumer(uint16_t data)
 469:../tmk_core/protocol/lufa/lufa.c **** {
 470:../tmk_core/protocol/lufa/lufa.c ****     uint8_t timeout = 255;
 471:../tmk_core/protocol/lufa/lufa.c **** 
 472:../tmk_core/protocol/lufa/lufa.c ****     if (USB_DeviceState != DEVICE_STATE_Configured)
 473:../tmk_core/protocol/lufa/lufa.c ****         return;
 474:../tmk_core/protocol/lufa/lufa.c **** 
 475:../tmk_core/protocol/lufa/lufa.c ****     report_extra_t r = {
 476:../tmk_core/protocol/lufa/lufa.c ****         .report_id = REPORT_ID_CONSUMER,
 477:../tmk_core/protocol/lufa/lufa.c ****         .usage = data
 478:../tmk_core/protocol/lufa/lufa.c ****     };
 479:../tmk_core/protocol/lufa/lufa.c ****     Endpoint_SelectEndpoint(EXTRAKEY_IN_EPNUM);
 480:../tmk_core/protocol/lufa/lufa.c **** 
 481:../tmk_core/protocol/lufa/lufa.c ****     /* Check if write ready for a polling interval around 10ms */
 482:../tmk_core/protocol/lufa/lufa.c ****     while (timeout-- && !Endpoint_IsReadWriteAllowed()) _delay_us(40);
 483:../tmk_core/protocol/lufa/lufa.c ****     if (!Endpoint_IsReadWriteAllowed()) return;
 484:../tmk_core/protocol/lufa/lufa.c **** 
 485:../tmk_core/protocol/lufa/lufa.c ****     Endpoint_Write_Stream_LE(&r, sizeof(report_extra_t), NULL);
 486:../tmk_core/protocol/lufa/lufa.c ****     Endpoint_ClearIN();
 487:../tmk_core/protocol/lufa/lufa.c **** }
 488:../tmk_core/protocol/lufa/lufa.c **** 
 489:../tmk_core/protocol/lufa/lufa.c **** 
 490:../tmk_core/protocol/lufa/lufa.c **** /*******************************************************************************
 491:../tmk_core/protocol/lufa/lufa.c ****  * sendchar
 492:../tmk_core/protocol/lufa/lufa.c ****  ******************************************************************************/
 493:../tmk_core/protocol/lufa/lufa.c **** #ifdef CONSOLE_ENABLE
 494:../tmk_core/protocol/lufa/lufa.c **** #define SEND_TIMEOUT 5
 495:../tmk_core/protocol/lufa/lufa.c **** int8_t sendchar(uint8_t c)
 496:../tmk_core/protocol/lufa/lufa.c **** {
  32               		.loc 1 496 0
  33               		.cfi_startproc
  34               	.LVL0:
  35               	/* prologue: function */
  36               	/* frame size = 0 */
  37               	/* stack size = 0 */
  38               	.L__stack_usage = 0
  39               	.LBB176:
 497:../tmk_core/protocol/lufa/lufa.c ****     // Not wait once timeouted.
 498:../tmk_core/protocol/lufa/lufa.c ****     // Because sendchar() is called so many times, waiting each call causes big lag.
 499:../tmk_core/protocol/lufa/lufa.c ****     static bool timeouted = false;
 500:../tmk_core/protocol/lufa/lufa.c **** 
 501:../tmk_core/protocol/lufa/lufa.c ****     // prevents Console_Task() from running during sendchar() runs.
 502:../tmk_core/protocol/lufa/lufa.c ****     // or char will be lost. These two function is mutually exclusive.
 503:../tmk_core/protocol/lufa/lufa.c ****     CONSOLE_FLUSH_SET(false);
  40               		.loc 1 503 0
  41 0000 9FB7      		in r25,__SREG__
  42               	.LVL1:
  43               	/* #APP */
  44               	 ;  503 "../tmk_core/protocol/lufa/lufa.c" 1
  45 0002 F894      		cli
  46               	 ;  0 "" 2
  47               	/* #NOAPP */
  48 0004 1092 0000 		sts console_flush,__zero_reg__
  49 0008 9FBF      		out __SREG__,r25
  50               	.LBE176:
 504:../tmk_core/protocol/lufa/lufa.c **** 
 505:../tmk_core/protocol/lufa/lufa.c ****     if (USB_DeviceState != DEVICE_STATE_Configured)
  51               		.loc 1 505 0
  52 000a 9091 0000 		lds r25,USB_DeviceState
  53               	.LVL2:
  54 000e 9430      		cpi r25,lo8(4)
  55 0010 01F0      		breq .+2
  56 0012 00C0      		rjmp .L14
  57               	.LBB177:
  58               	.LBB178:
  59               		.file 2 "../tmk_core/protocol/lufa/LUFA-git/LUFA/Drivers/USB/Core/AVR8/../AVR8/Endpoint_AVR8.h"
   1:../tmk_core/protocol/lufa/LUFA-git/LUFA/Drivers/USB/Core/AVR8/../AVR8/Endpoint_AVR8.h **** /*
   2:../tmk_core/protocol/lufa/LUFA-git/LUFA/Drivers/USB/Core/AVR8/../AVR8/Endpoint_AVR8.h ****              LUFA Library
   3:../tmk_core/protocol/lufa/LUFA-git/LUFA/Drivers/USB/Core/AVR8/../AVR8/Endpoint_AVR8.h ****      Copyright (C) Dean Camera, 2014.
   4:../tmk_core/protocol/lufa/LUFA-git/LUFA/Drivers/USB/Core/AVR8/../AVR8/Endpoint_AVR8.h **** 
   5:../tmk_core/protocol/lufa/LUFA-git/LUFA/Drivers/USB/Core/AVR8/../AVR8/Endpoint_AVR8.h ****   dean [at] fourwalledcubicle [dot] com
   6:../tmk_core/protocol/lufa/LUFA-git/LUFA/Drivers/USB/Core/AVR8/../AVR8/Endpoint_AVR8.h ****            www.lufa-lib.org
   7:../tmk_core/protocol/lufa/LUFA-git/LUFA/Drivers/USB/Core/AVR8/../AVR8/Endpoint_AVR8.h **** */
   8:../tmk_core/protocol/lufa/LUFA-git/LUFA/Drivers/USB/Core/AVR8/../AVR8/Endpoint_AVR8.h **** 
   9:../tmk_core/protocol/lufa/LUFA-git/LUFA/Drivers/USB/Core/AVR8/../AVR8/Endpoint_AVR8.h **** /*
  10:../tmk_core/protocol/lufa/LUFA-git/LUFA/Drivers/USB/Core/AVR8/../AVR8/Endpoint_AVR8.h ****   Copyright 2014  Dean Camera (dean [at] fourwalledcubicle [dot] com)
  11:../tmk_core/protocol/lufa/LUFA-git/LUFA/Drivers/USB/Core/AVR8/../AVR8/Endpoint_AVR8.h **** 
  12:../tmk_core/protocol/lufa/LUFA-git/LUFA/Drivers/USB/Core/AVR8/../AVR8/Endpoint_AVR8.h ****   Permission to use, copy, modify, distribute, and sell this
  13:../tmk_core/protocol/lufa/LUFA-git/LUFA/Drivers/USB/Core/AVR8/../AVR8/Endpoint_AVR8.h ****   software and its documentation for any purpose is hereby granted
  14:../tmk_core/protocol/lufa/LUFA-git/LUFA/Drivers/USB/Core/AVR8/../AVR8/Endpoint_AVR8.h ****   without fee, provided that the above copyright notice appear in
  15:../tmk_core/protocol/lufa/LUFA-git/LUFA/Drivers/USB/Core/AVR8/../AVR8/Endpoint_AVR8.h ****   all copies and that both that the copyright notice and this
  16:../tmk_core/protocol/lufa/LUFA-git/LUFA/Drivers/USB/Core/AVR8/../AVR8/Endpoint_AVR8.h ****   permission notice and warranty disclaimer appear in supporting
  17:../tmk_core/protocol/lufa/LUFA-git/LUFA/Drivers/USB/Core/AVR8/../AVR8/Endpoint_AVR8.h ****   documentation, and that the name of the author not be used in
  18:../tmk_core/protocol/lufa/LUFA-git/LUFA/Drivers/USB/Core/AVR8/../AVR8/Endpoint_AVR8.h ****   advertising or publicity pertaining to distribution of the
  19:../tmk_core/protocol/lufa/LUFA-git/LUFA/Drivers/USB/Core/AVR8/../AVR8/Endpoint_AVR8.h ****   software without specific, written prior permission.
  20:../tmk_core/protocol/lufa/LUFA-git/LUFA/Drivers/USB/Core/AVR8/../AVR8/Endpoint_AVR8.h **** 
  21:../tmk_core/protocol/lufa/LUFA-git/LUFA/Drivers/USB/Core/AVR8/../AVR8/Endpoint_AVR8.h ****   The author disclaims all warranties with regard to this
  22:../tmk_core/protocol/lufa/LUFA-git/LUFA/Drivers/USB/Core/AVR8/../AVR8/Endpoint_AVR8.h ****   software, including all implied warranties of merchantability
  23:../tmk_core/protocol/lufa/LUFA-git/LUFA/Drivers/USB/Core/AVR8/../AVR8/Endpoint_AVR8.h ****   and fitness.  In no event shall the author be liable for any
  24:../tmk_core/protocol/lufa/LUFA-git/LUFA/Drivers/USB/Core/AVR8/../AVR8/Endpoint_AVR8.h ****   special, indirect or consequential damages or any damages
  25:../tmk_core/protocol/lufa/LUFA-git/LUFA/Drivers/USB/Core/AVR8/../AVR8/Endpoint_AVR8.h ****   whatsoever resulting from loss of use, data or profits, whether
  26:../tmk_core/protocol/lufa/LUFA-git/LUFA/Drivers/USB/Core/AVR8/../AVR8/Endpoint_AVR8.h ****   in an action of contract, negligence or other tortious action,
  27:../tmk_core/protocol/lufa/LUFA-git/LUFA/Drivers/USB/Core/AVR8/../AVR8/Endpoint_AVR8.h ****   arising out of or in connection with the use or performance of
  28:../tmk_core/protocol/lufa/LUFA-git/LUFA/Drivers/USB/Core/AVR8/../AVR8/Endpoint_AVR8.h ****   this software.
  29:../tmk_core/protocol/lufa/LUFA-git/LUFA/Drivers/USB/Core/AVR8/../AVR8/Endpoint_AVR8.h **** */
  30:../tmk_core/protocol/lufa/LUFA-git/LUFA/Drivers/USB/Core/AVR8/../AVR8/Endpoint_AVR8.h **** 
  31:../tmk_core/protocol/lufa/LUFA-git/LUFA/Drivers/USB/Core/AVR8/../AVR8/Endpoint_AVR8.h **** /** \file
  32:../tmk_core/protocol/lufa/LUFA-git/LUFA/Drivers/USB/Core/AVR8/../AVR8/Endpoint_AVR8.h ****  *  \brief USB Endpoint definitions for the AVR8 microcontrollers.
  33:../tmk_core/protocol/lufa/LUFA-git/LUFA/Drivers/USB/Core/AVR8/../AVR8/Endpoint_AVR8.h ****  *  \copydetails Group_EndpointManagement_AVR8
  34:../tmk_core/protocol/lufa/LUFA-git/LUFA/Drivers/USB/Core/AVR8/../AVR8/Endpoint_AVR8.h ****  *
  35:../tmk_core/protocol/lufa/LUFA-git/LUFA/Drivers/USB/Core/AVR8/../AVR8/Endpoint_AVR8.h ****  *  \note This file should not be included directly. It is automatically included as needed by the 
  36:../tmk_core/protocol/lufa/LUFA-git/LUFA/Drivers/USB/Core/AVR8/../AVR8/Endpoint_AVR8.h ****  *        dispatch header located in LUFA/Drivers/USB/USB.h.
  37:../tmk_core/protocol/lufa/LUFA-git/LUFA/Drivers/USB/Core/AVR8/../AVR8/Endpoint_AVR8.h ****  */
  38:../tmk_core/protocol/lufa/LUFA-git/LUFA/Drivers/USB/Core/AVR8/../AVR8/Endpoint_AVR8.h **** 
  39:../tmk_core/protocol/lufa/LUFA-git/LUFA/Drivers/USB/Core/AVR8/../AVR8/Endpoint_AVR8.h **** /** \ingroup Group_EndpointRW
  40:../tmk_core/protocol/lufa/LUFA-git/LUFA/Drivers/USB/Core/AVR8/../AVR8/Endpoint_AVR8.h ****  *  \defgroup Group_EndpointRW_AVR8 Endpoint Data Reading and Writing (AVR8)
  41:../tmk_core/protocol/lufa/LUFA-git/LUFA/Drivers/USB/Core/AVR8/../AVR8/Endpoint_AVR8.h ****  *  \brief Endpoint data read/write definitions for the Atmel AVR8 architecture.
  42:../tmk_core/protocol/lufa/LUFA-git/LUFA/Drivers/USB/Core/AVR8/../AVR8/Endpoint_AVR8.h ****  *
  43:../tmk_core/protocol/lufa/LUFA-git/LUFA/Drivers/USB/Core/AVR8/../AVR8/Endpoint_AVR8.h ****  *  Functions, macros, variables, enums and types related to data reading and writing from and to e
  44:../tmk_core/protocol/lufa/LUFA-git/LUFA/Drivers/USB/Core/AVR8/../AVR8/Endpoint_AVR8.h ****  */
  45:../tmk_core/protocol/lufa/LUFA-git/LUFA/Drivers/USB/Core/AVR8/../AVR8/Endpoint_AVR8.h **** 
  46:../tmk_core/protocol/lufa/LUFA-git/LUFA/Drivers/USB/Core/AVR8/../AVR8/Endpoint_AVR8.h **** /** \ingroup Group_EndpointPrimitiveRW
  47:../tmk_core/protocol/lufa/LUFA-git/LUFA/Drivers/USB/Core/AVR8/../AVR8/Endpoint_AVR8.h ****  *  \defgroup Group_EndpointPrimitiveRW_AVR8 Read/Write of Primitive Data Types (AVR8)
  48:../tmk_core/protocol/lufa/LUFA-git/LUFA/Drivers/USB/Core/AVR8/../AVR8/Endpoint_AVR8.h ****  *  \brief Endpoint primitive read/write definitions for the Atmel AVR8 architecture.
  49:../tmk_core/protocol/lufa/LUFA-git/LUFA/Drivers/USB/Core/AVR8/../AVR8/Endpoint_AVR8.h ****  *
  50:../tmk_core/protocol/lufa/LUFA-git/LUFA/Drivers/USB/Core/AVR8/../AVR8/Endpoint_AVR8.h ****  *  Functions, macros, variables, enums and types related to data reading and writing of primitive 
  51:../tmk_core/protocol/lufa/LUFA-git/LUFA/Drivers/USB/Core/AVR8/../AVR8/Endpoint_AVR8.h ****  *  from and to endpoints.
  52:../tmk_core/protocol/lufa/LUFA-git/LUFA/Drivers/USB/Core/AVR8/../AVR8/Endpoint_AVR8.h ****  */
  53:../tmk_core/protocol/lufa/LUFA-git/LUFA/Drivers/USB/Core/AVR8/../AVR8/Endpoint_AVR8.h **** 
  54:../tmk_core/protocol/lufa/LUFA-git/LUFA/Drivers/USB/Core/AVR8/../AVR8/Endpoint_AVR8.h **** /** \ingroup Group_EndpointPacketManagement
  55:../tmk_core/protocol/lufa/LUFA-git/LUFA/Drivers/USB/Core/AVR8/../AVR8/Endpoint_AVR8.h ****  *  \defgroup Group_EndpointPacketManagement_AVR8 Endpoint Packet Management (AVR8)
  56:../tmk_core/protocol/lufa/LUFA-git/LUFA/Drivers/USB/Core/AVR8/../AVR8/Endpoint_AVR8.h ****  *  \brief Endpoint packet management definitions for the Atmel AVR8 architecture.
  57:../tmk_core/protocol/lufa/LUFA-git/LUFA/Drivers/USB/Core/AVR8/../AVR8/Endpoint_AVR8.h ****  *
  58:../tmk_core/protocol/lufa/LUFA-git/LUFA/Drivers/USB/Core/AVR8/../AVR8/Endpoint_AVR8.h ****  *  Functions, macros, variables, enums and types related to packet management of endpoints.
  59:../tmk_core/protocol/lufa/LUFA-git/LUFA/Drivers/USB/Core/AVR8/../AVR8/Endpoint_AVR8.h ****  */
  60:../tmk_core/protocol/lufa/LUFA-git/LUFA/Drivers/USB/Core/AVR8/../AVR8/Endpoint_AVR8.h **** 
  61:../tmk_core/protocol/lufa/LUFA-git/LUFA/Drivers/USB/Core/AVR8/../AVR8/Endpoint_AVR8.h **** /** \ingroup Group_EndpointManagement
  62:../tmk_core/protocol/lufa/LUFA-git/LUFA/Drivers/USB/Core/AVR8/../AVR8/Endpoint_AVR8.h ****  *  \defgroup Group_EndpointManagement_AVR8 Endpoint Management (AVR8)
  63:../tmk_core/protocol/lufa/LUFA-git/LUFA/Drivers/USB/Core/AVR8/../AVR8/Endpoint_AVR8.h ****  *  \brief Endpoint management definitions for the Atmel AVR8 architecture.
  64:../tmk_core/protocol/lufa/LUFA-git/LUFA/Drivers/USB/Core/AVR8/../AVR8/Endpoint_AVR8.h ****  *
  65:../tmk_core/protocol/lufa/LUFA-git/LUFA/Drivers/USB/Core/AVR8/../AVR8/Endpoint_AVR8.h ****  *  Functions, macros and enums related to endpoint management when in USB Device mode. This
  66:../tmk_core/protocol/lufa/LUFA-git/LUFA/Drivers/USB/Core/AVR8/../AVR8/Endpoint_AVR8.h ****  *  module contains the endpoint management macros, as well as endpoint interrupt and data
  67:../tmk_core/protocol/lufa/LUFA-git/LUFA/Drivers/USB/Core/AVR8/../AVR8/Endpoint_AVR8.h ****  *  send/receive functions for various data types.
  68:../tmk_core/protocol/lufa/LUFA-git/LUFA/Drivers/USB/Core/AVR8/../AVR8/Endpoint_AVR8.h ****  *
  69:../tmk_core/protocol/lufa/LUFA-git/LUFA/Drivers/USB/Core/AVR8/../AVR8/Endpoint_AVR8.h ****  *  @{
  70:../tmk_core/protocol/lufa/LUFA-git/LUFA/Drivers/USB/Core/AVR8/../AVR8/Endpoint_AVR8.h ****  */
  71:../tmk_core/protocol/lufa/LUFA-git/LUFA/Drivers/USB/Core/AVR8/../AVR8/Endpoint_AVR8.h **** 
  72:../tmk_core/protocol/lufa/LUFA-git/LUFA/Drivers/USB/Core/AVR8/../AVR8/Endpoint_AVR8.h **** #ifndef __ENDPOINT_AVR8_H__
  73:../tmk_core/protocol/lufa/LUFA-git/LUFA/Drivers/USB/Core/AVR8/../AVR8/Endpoint_AVR8.h **** #define __ENDPOINT_AVR8_H__
  74:../tmk_core/protocol/lufa/LUFA-git/LUFA/Drivers/USB/Core/AVR8/../AVR8/Endpoint_AVR8.h **** 
  75:../tmk_core/protocol/lufa/LUFA-git/LUFA/Drivers/USB/Core/AVR8/../AVR8/Endpoint_AVR8.h **** 	/* Includes: */
  76:../tmk_core/protocol/lufa/LUFA-git/LUFA/Drivers/USB/Core/AVR8/../AVR8/Endpoint_AVR8.h **** 		#include "../../../../Common/Common.h"
  77:../tmk_core/protocol/lufa/LUFA-git/LUFA/Drivers/USB/Core/AVR8/../AVR8/Endpoint_AVR8.h **** 		#include "../USBTask.h"
  78:../tmk_core/protocol/lufa/LUFA-git/LUFA/Drivers/USB/Core/AVR8/../AVR8/Endpoint_AVR8.h **** 		#include "../USBInterrupt.h"
  79:../tmk_core/protocol/lufa/LUFA-git/LUFA/Drivers/USB/Core/AVR8/../AVR8/Endpoint_AVR8.h **** 
  80:../tmk_core/protocol/lufa/LUFA-git/LUFA/Drivers/USB/Core/AVR8/../AVR8/Endpoint_AVR8.h **** 	/* Enable C linkage for C++ Compilers: */
  81:../tmk_core/protocol/lufa/LUFA-git/LUFA/Drivers/USB/Core/AVR8/../AVR8/Endpoint_AVR8.h **** 		#if defined(__cplusplus)
  82:../tmk_core/protocol/lufa/LUFA-git/LUFA/Drivers/USB/Core/AVR8/../AVR8/Endpoint_AVR8.h **** 			extern "C" {
  83:../tmk_core/protocol/lufa/LUFA-git/LUFA/Drivers/USB/Core/AVR8/../AVR8/Endpoint_AVR8.h **** 		#endif
  84:../tmk_core/protocol/lufa/LUFA-git/LUFA/Drivers/USB/Core/AVR8/../AVR8/Endpoint_AVR8.h **** 
  85:../tmk_core/protocol/lufa/LUFA-git/LUFA/Drivers/USB/Core/AVR8/../AVR8/Endpoint_AVR8.h **** 	/* Preprocessor Checks: */
  86:../tmk_core/protocol/lufa/LUFA-git/LUFA/Drivers/USB/Core/AVR8/../AVR8/Endpoint_AVR8.h **** 		#if !defined(__INCLUDE_FROM_USB_DRIVER)
  87:../tmk_core/protocol/lufa/LUFA-git/LUFA/Drivers/USB/Core/AVR8/../AVR8/Endpoint_AVR8.h **** 			#error Do not include this file directly. Include LUFA/Drivers/USB/USB.h instead.
  88:../tmk_core/protocol/lufa/LUFA-git/LUFA/Drivers/USB/Core/AVR8/../AVR8/Endpoint_AVR8.h **** 		#endif
  89:../tmk_core/protocol/lufa/LUFA-git/LUFA/Drivers/USB/Core/AVR8/../AVR8/Endpoint_AVR8.h **** 
  90:../tmk_core/protocol/lufa/LUFA-git/LUFA/Drivers/USB/Core/AVR8/../AVR8/Endpoint_AVR8.h **** 	/* Private Interface - For use in library only: */
  91:../tmk_core/protocol/lufa/LUFA-git/LUFA/Drivers/USB/Core/AVR8/../AVR8/Endpoint_AVR8.h **** 	#if !defined(__DOXYGEN__)
  92:../tmk_core/protocol/lufa/LUFA-git/LUFA/Drivers/USB/Core/AVR8/../AVR8/Endpoint_AVR8.h **** 		/* Inline Functions: */
  93:../tmk_core/protocol/lufa/LUFA-git/LUFA/Drivers/USB/Core/AVR8/../AVR8/Endpoint_AVR8.h **** 			static inline uint8_t Endpoint_BytesToEPSizeMask(const uint16_t Bytes) ATTR_WARN_UNUSED_RESULT A
  94:../tmk_core/protocol/lufa/LUFA-git/LUFA/Drivers/USB/Core/AVR8/../AVR8/Endpoint_AVR8.h **** 			                                                                       ATTR_ALWAYS_INLINE;
  95:../tmk_core/protocol/lufa/LUFA-git/LUFA/Drivers/USB/Core/AVR8/../AVR8/Endpoint_AVR8.h **** 			static inline uint8_t Endpoint_BytesToEPSizeMask(const uint16_t Bytes)
  96:../tmk_core/protocol/lufa/LUFA-git/LUFA/Drivers/USB/Core/AVR8/../AVR8/Endpoint_AVR8.h **** 			{
  97:../tmk_core/protocol/lufa/LUFA-git/LUFA/Drivers/USB/Core/AVR8/../AVR8/Endpoint_AVR8.h **** 				uint8_t  MaskVal    = 0;
  98:../tmk_core/protocol/lufa/LUFA-git/LUFA/Drivers/USB/Core/AVR8/../AVR8/Endpoint_AVR8.h **** 				uint16_t CheckBytes = 8;
  99:../tmk_core/protocol/lufa/LUFA-git/LUFA/Drivers/USB/Core/AVR8/../AVR8/Endpoint_AVR8.h **** 
 100:../tmk_core/protocol/lufa/LUFA-git/LUFA/Drivers/USB/Core/AVR8/../AVR8/Endpoint_AVR8.h **** 				while (CheckBytes < Bytes)
 101:../tmk_core/protocol/lufa/LUFA-git/LUFA/Drivers/USB/Core/AVR8/../AVR8/Endpoint_AVR8.h **** 				{
 102:../tmk_core/protocol/lufa/LUFA-git/LUFA/Drivers/USB/Core/AVR8/../AVR8/Endpoint_AVR8.h **** 					MaskVal++;
 103:../tmk_core/protocol/lufa/LUFA-git/LUFA/Drivers/USB/Core/AVR8/../AVR8/Endpoint_AVR8.h **** 					CheckBytes <<= 1;
 104:../tmk_core/protocol/lufa/LUFA-git/LUFA/Drivers/USB/Core/AVR8/../AVR8/Endpoint_AVR8.h **** 				}
 105:../tmk_core/protocol/lufa/LUFA-git/LUFA/Drivers/USB/Core/AVR8/../AVR8/Endpoint_AVR8.h **** 
 106:../tmk_core/protocol/lufa/LUFA-git/LUFA/Drivers/USB/Core/AVR8/../AVR8/Endpoint_AVR8.h **** 				return (MaskVal << EPSIZE0);
 107:../tmk_core/protocol/lufa/LUFA-git/LUFA/Drivers/USB/Core/AVR8/../AVR8/Endpoint_AVR8.h **** 			}
 108:../tmk_core/protocol/lufa/LUFA-git/LUFA/Drivers/USB/Core/AVR8/../AVR8/Endpoint_AVR8.h **** 
 109:../tmk_core/protocol/lufa/LUFA-git/LUFA/Drivers/USB/Core/AVR8/../AVR8/Endpoint_AVR8.h **** 		/* Function Prototypes: */
 110:../tmk_core/protocol/lufa/LUFA-git/LUFA/Drivers/USB/Core/AVR8/../AVR8/Endpoint_AVR8.h **** 			void Endpoint_ClearEndpoints(void);
 111:../tmk_core/protocol/lufa/LUFA-git/LUFA/Drivers/USB/Core/AVR8/../AVR8/Endpoint_AVR8.h **** 			bool Endpoint_ConfigureEndpoint_Prv(const uint8_t Number,
 112:../tmk_core/protocol/lufa/LUFA-git/LUFA/Drivers/USB/Core/AVR8/../AVR8/Endpoint_AVR8.h **** 			                                    const uint8_t UECFG0XData,
 113:../tmk_core/protocol/lufa/LUFA-git/LUFA/Drivers/USB/Core/AVR8/../AVR8/Endpoint_AVR8.h **** 			                                    const uint8_t UECFG1XData);
 114:../tmk_core/protocol/lufa/LUFA-git/LUFA/Drivers/USB/Core/AVR8/../AVR8/Endpoint_AVR8.h **** 
 115:../tmk_core/protocol/lufa/LUFA-git/LUFA/Drivers/USB/Core/AVR8/../AVR8/Endpoint_AVR8.h **** 	#endif
 116:../tmk_core/protocol/lufa/LUFA-git/LUFA/Drivers/USB/Core/AVR8/../AVR8/Endpoint_AVR8.h **** 
 117:../tmk_core/protocol/lufa/LUFA-git/LUFA/Drivers/USB/Core/AVR8/../AVR8/Endpoint_AVR8.h **** 	/* Public Interface - May be used in end-application: */
 118:../tmk_core/protocol/lufa/LUFA-git/LUFA/Drivers/USB/Core/AVR8/../AVR8/Endpoint_AVR8.h **** 		/* Macros: */
 119:../tmk_core/protocol/lufa/LUFA-git/LUFA/Drivers/USB/Core/AVR8/../AVR8/Endpoint_AVR8.h **** 			#if (!defined(FIXED_CONTROL_ENDPOINT_SIZE) || defined(__DOXYGEN__))
 120:../tmk_core/protocol/lufa/LUFA-git/LUFA/Drivers/USB/Core/AVR8/../AVR8/Endpoint_AVR8.h **** 				/** Default size of the default control endpoint's bank, until altered by the control endpoint 
 121:../tmk_core/protocol/lufa/LUFA-git/LUFA/Drivers/USB/Core/AVR8/../AVR8/Endpoint_AVR8.h **** 				 *  value in the device descriptor. Not available if the \c FIXED_CONTROL_ENDPOINT_SIZE token i
 122:../tmk_core/protocol/lufa/LUFA-git/LUFA/Drivers/USB/Core/AVR8/../AVR8/Endpoint_AVR8.h **** 				 */
 123:../tmk_core/protocol/lufa/LUFA-git/LUFA/Drivers/USB/Core/AVR8/../AVR8/Endpoint_AVR8.h **** 				#define ENDPOINT_CONTROLEP_DEFAULT_SIZE     8
 124:../tmk_core/protocol/lufa/LUFA-git/LUFA/Drivers/USB/Core/AVR8/../AVR8/Endpoint_AVR8.h **** 			#endif
 125:../tmk_core/protocol/lufa/LUFA-git/LUFA/Drivers/USB/Core/AVR8/../AVR8/Endpoint_AVR8.h **** 
 126:../tmk_core/protocol/lufa/LUFA-git/LUFA/Drivers/USB/Core/AVR8/../AVR8/Endpoint_AVR8.h **** 			#if !defined(CONTROL_ONLY_DEVICE) || defined(__DOXYGEN__)
 127:../tmk_core/protocol/lufa/LUFA-git/LUFA/Drivers/USB/Core/AVR8/../AVR8/Endpoint_AVR8.h **** 				#if defined(USB_SERIES_4_AVR) || defined(USB_SERIES_6_AVR) || defined(USB_SERIES_7_AVR) || defi
 128:../tmk_core/protocol/lufa/LUFA-git/LUFA/Drivers/USB/Core/AVR8/../AVR8/Endpoint_AVR8.h **** 					/** Total number of endpoints (including the default control endpoint at address 0) which may
 129:../tmk_core/protocol/lufa/LUFA-git/LUFA/Drivers/USB/Core/AVR8/../AVR8/Endpoint_AVR8.h **** 					 *  be used in the device. Different USB AVR models support different amounts of endpoints,
 130:../tmk_core/protocol/lufa/LUFA-git/LUFA/Drivers/USB/Core/AVR8/../AVR8/Endpoint_AVR8.h **** 					 *  this value reflects the maximum number of endpoints for the currently selected AVR model.
 131:../tmk_core/protocol/lufa/LUFA-git/LUFA/Drivers/USB/Core/AVR8/../AVR8/Endpoint_AVR8.h **** 					 */
 132:../tmk_core/protocol/lufa/LUFA-git/LUFA/Drivers/USB/Core/AVR8/../AVR8/Endpoint_AVR8.h **** 					#define ENDPOINT_TOTAL_ENDPOINTS        7
 133:../tmk_core/protocol/lufa/LUFA-git/LUFA/Drivers/USB/Core/AVR8/../AVR8/Endpoint_AVR8.h **** 				#else
 134:../tmk_core/protocol/lufa/LUFA-git/LUFA/Drivers/USB/Core/AVR8/../AVR8/Endpoint_AVR8.h **** 					#define ENDPOINT_TOTAL_ENDPOINTS        5
 135:../tmk_core/protocol/lufa/LUFA-git/LUFA/Drivers/USB/Core/AVR8/../AVR8/Endpoint_AVR8.h **** 				#endif
 136:../tmk_core/protocol/lufa/LUFA-git/LUFA/Drivers/USB/Core/AVR8/../AVR8/Endpoint_AVR8.h **** 			#else
 137:../tmk_core/protocol/lufa/LUFA-git/LUFA/Drivers/USB/Core/AVR8/../AVR8/Endpoint_AVR8.h **** 				#define ENDPOINT_TOTAL_ENDPOINTS            1
 138:../tmk_core/protocol/lufa/LUFA-git/LUFA/Drivers/USB/Core/AVR8/../AVR8/Endpoint_AVR8.h **** 			#endif
 139:../tmk_core/protocol/lufa/LUFA-git/LUFA/Drivers/USB/Core/AVR8/../AVR8/Endpoint_AVR8.h **** 
 140:../tmk_core/protocol/lufa/LUFA-git/LUFA/Drivers/USB/Core/AVR8/../AVR8/Endpoint_AVR8.h **** 		/* Enums: */
 141:../tmk_core/protocol/lufa/LUFA-git/LUFA/Drivers/USB/Core/AVR8/../AVR8/Endpoint_AVR8.h **** 			/** Enum for the possible error return codes of the \ref Endpoint_WaitUntilReady() function.
 142:../tmk_core/protocol/lufa/LUFA-git/LUFA/Drivers/USB/Core/AVR8/../AVR8/Endpoint_AVR8.h **** 			 *
 143:../tmk_core/protocol/lufa/LUFA-git/LUFA/Drivers/USB/Core/AVR8/../AVR8/Endpoint_AVR8.h **** 			 *  \ingroup Group_EndpointRW_AVR8
 144:../tmk_core/protocol/lufa/LUFA-git/LUFA/Drivers/USB/Core/AVR8/../AVR8/Endpoint_AVR8.h **** 			 */
 145:../tmk_core/protocol/lufa/LUFA-git/LUFA/Drivers/USB/Core/AVR8/../AVR8/Endpoint_AVR8.h **** 			enum Endpoint_WaitUntilReady_ErrorCodes_t
 146:../tmk_core/protocol/lufa/LUFA-git/LUFA/Drivers/USB/Core/AVR8/../AVR8/Endpoint_AVR8.h **** 			{
 147:../tmk_core/protocol/lufa/LUFA-git/LUFA/Drivers/USB/Core/AVR8/../AVR8/Endpoint_AVR8.h **** 				ENDPOINT_READYWAIT_NoError                 = 0, /**< Endpoint is ready for next packet, no erro
 148:../tmk_core/protocol/lufa/LUFA-git/LUFA/Drivers/USB/Core/AVR8/../AVR8/Endpoint_AVR8.h **** 				ENDPOINT_READYWAIT_EndpointStalled         = 1, /**< The endpoint was stalled during the stream
 149:../tmk_core/protocol/lufa/LUFA-git/LUFA/Drivers/USB/Core/AVR8/../AVR8/Endpoint_AVR8.h **** 				                                                 *   transfer by the host or device.
 150:../tmk_core/protocol/lufa/LUFA-git/LUFA/Drivers/USB/Core/AVR8/../AVR8/Endpoint_AVR8.h **** 				                                                 */
 151:../tmk_core/protocol/lufa/LUFA-git/LUFA/Drivers/USB/Core/AVR8/../AVR8/Endpoint_AVR8.h **** 				ENDPOINT_READYWAIT_DeviceDisconnected      = 2,	/**< Device was disconnected from the host whil
 152:../tmk_core/protocol/lufa/LUFA-git/LUFA/Drivers/USB/Core/AVR8/../AVR8/Endpoint_AVR8.h **** 				                                                 *   waiting for the endpoint to become ready.
 153:../tmk_core/protocol/lufa/LUFA-git/LUFA/Drivers/USB/Core/AVR8/../AVR8/Endpoint_AVR8.h **** 				                                                 */
 154:../tmk_core/protocol/lufa/LUFA-git/LUFA/Drivers/USB/Core/AVR8/../AVR8/Endpoint_AVR8.h **** 				ENDPOINT_READYWAIT_BusSuspended            = 3, /**< The USB bus has been suspended by the host
 155:../tmk_core/protocol/lufa/LUFA-git/LUFA/Drivers/USB/Core/AVR8/../AVR8/Endpoint_AVR8.h **** 				                                                 *   no USB endpoint traffic can occur until th
 156:../tmk_core/protocol/lufa/LUFA-git/LUFA/Drivers/USB/Core/AVR8/../AVR8/Endpoint_AVR8.h **** 				                                                 *   has resumed.
 157:../tmk_core/protocol/lufa/LUFA-git/LUFA/Drivers/USB/Core/AVR8/../AVR8/Endpoint_AVR8.h **** 				                                                 */
 158:../tmk_core/protocol/lufa/LUFA-git/LUFA/Drivers/USB/Core/AVR8/../AVR8/Endpoint_AVR8.h **** 				ENDPOINT_READYWAIT_Timeout                 = 4, /**< The host failed to accept or send the next
 159:../tmk_core/protocol/lufa/LUFA-git/LUFA/Drivers/USB/Core/AVR8/../AVR8/Endpoint_AVR8.h **** 				                                                 *   within the software timeout period set by 
 160:../tmk_core/protocol/lufa/LUFA-git/LUFA/Drivers/USB/Core/AVR8/../AVR8/Endpoint_AVR8.h **** 				                                                 *   \ref USB_STREAM_TIMEOUT_MS macro.
 161:../tmk_core/protocol/lufa/LUFA-git/LUFA/Drivers/USB/Core/AVR8/../AVR8/Endpoint_AVR8.h **** 				                                                 */
 162:../tmk_core/protocol/lufa/LUFA-git/LUFA/Drivers/USB/Core/AVR8/../AVR8/Endpoint_AVR8.h **** 			};
 163:../tmk_core/protocol/lufa/LUFA-git/LUFA/Drivers/USB/Core/AVR8/../AVR8/Endpoint_AVR8.h **** 
 164:../tmk_core/protocol/lufa/LUFA-git/LUFA/Drivers/USB/Core/AVR8/../AVR8/Endpoint_AVR8.h **** 		/* Inline Functions: */
 165:../tmk_core/protocol/lufa/LUFA-git/LUFA/Drivers/USB/Core/AVR8/../AVR8/Endpoint_AVR8.h **** 			/** Configures the specified endpoint address with the given endpoint type, bank size and number
 166:../tmk_core/protocol/lufa/LUFA-git/LUFA/Drivers/USB/Core/AVR8/../AVR8/Endpoint_AVR8.h **** 			 *  banks. Once configured, the endpoint may be read from or written to, depending on its direct
 167:../tmk_core/protocol/lufa/LUFA-git/LUFA/Drivers/USB/Core/AVR8/../AVR8/Endpoint_AVR8.h **** 			 *
 168:../tmk_core/protocol/lufa/LUFA-git/LUFA/Drivers/USB/Core/AVR8/../AVR8/Endpoint_AVR8.h **** 			 *  \param[in] Address    Endpoint address to configure.
 169:../tmk_core/protocol/lufa/LUFA-git/LUFA/Drivers/USB/Core/AVR8/../AVR8/Endpoint_AVR8.h **** 			 *
 170:../tmk_core/protocol/lufa/LUFA-git/LUFA/Drivers/USB/Core/AVR8/../AVR8/Endpoint_AVR8.h **** 			 *  \param[in] Type       Type of endpoint to configure, a \c EP_TYPE_* mask. Not all endpoint t
 171:../tmk_core/protocol/lufa/LUFA-git/LUFA/Drivers/USB/Core/AVR8/../AVR8/Endpoint_AVR8.h **** 			 *                        are available on Low Speed USB devices - refer to the USB 2.0 specific
 172:../tmk_core/protocol/lufa/LUFA-git/LUFA/Drivers/USB/Core/AVR8/../AVR8/Endpoint_AVR8.h **** 			 *
 173:../tmk_core/protocol/lufa/LUFA-git/LUFA/Drivers/USB/Core/AVR8/../AVR8/Endpoint_AVR8.h **** 			 *  \param[in] Size       Size of the endpoint's bank, where packets are stored before they are 
 174:../tmk_core/protocol/lufa/LUFA-git/LUFA/Drivers/USB/Core/AVR8/../AVR8/Endpoint_AVR8.h **** 			 *                        to the USB host, or after they have been received from the USB host (d
 175:../tmk_core/protocol/lufa/LUFA-git/LUFA/Drivers/USB/Core/AVR8/../AVR8/Endpoint_AVR8.h **** 			 *                        the endpoint's data direction). The bank size must indicate the maximu
 176:../tmk_core/protocol/lufa/LUFA-git/LUFA/Drivers/USB/Core/AVR8/../AVR8/Endpoint_AVR8.h **** 			 *                        that the endpoint can handle.
 177:../tmk_core/protocol/lufa/LUFA-git/LUFA/Drivers/USB/Core/AVR8/../AVR8/Endpoint_AVR8.h **** 			 *
 178:../tmk_core/protocol/lufa/LUFA-git/LUFA/Drivers/USB/Core/AVR8/../AVR8/Endpoint_AVR8.h **** 			 *  \param[in] Banks      Number of banks to use for the endpoint being configured.
 179:../tmk_core/protocol/lufa/LUFA-git/LUFA/Drivers/USB/Core/AVR8/../AVR8/Endpoint_AVR8.h **** 			 *
 180:../tmk_core/protocol/lufa/LUFA-git/LUFA/Drivers/USB/Core/AVR8/../AVR8/Endpoint_AVR8.h **** 			 *  \attention When the \c ORDERED_EP_CONFIG compile time option is used, Endpoints <b>must</b> 
 181:../tmk_core/protocol/lufa/LUFA-git/LUFA/Drivers/USB/Core/AVR8/../AVR8/Endpoint_AVR8.h **** 			 *             ascending order, or bank corruption will occur.
 182:../tmk_core/protocol/lufa/LUFA-git/LUFA/Drivers/USB/Core/AVR8/../AVR8/Endpoint_AVR8.h **** 			 *
 183:../tmk_core/protocol/lufa/LUFA-git/LUFA/Drivers/USB/Core/AVR8/../AVR8/Endpoint_AVR8.h **** 			 *  \note Different endpoints may have different maximum packet sizes based on the endpoint's in
 184:../tmk_core/protocol/lufa/LUFA-git/LUFA/Drivers/USB/Core/AVR8/../AVR8/Endpoint_AVR8.h **** 			 *        refer to the chosen microcontroller model's datasheet to determine the maximum bank si
 185:../tmk_core/protocol/lufa/LUFA-git/LUFA/Drivers/USB/Core/AVR8/../AVR8/Endpoint_AVR8.h **** 			 *        \n\n
 186:../tmk_core/protocol/lufa/LUFA-git/LUFA/Drivers/USB/Core/AVR8/../AVR8/Endpoint_AVR8.h **** 			 *
 187:../tmk_core/protocol/lufa/LUFA-git/LUFA/Drivers/USB/Core/AVR8/../AVR8/Endpoint_AVR8.h **** 			 *  \note The default control endpoint should not be manually configured by the user application
 188:../tmk_core/protocol/lufa/LUFA-git/LUFA/Drivers/USB/Core/AVR8/../AVR8/Endpoint_AVR8.h **** 			 *        it is automatically configured by the library internally.
 189:../tmk_core/protocol/lufa/LUFA-git/LUFA/Drivers/USB/Core/AVR8/../AVR8/Endpoint_AVR8.h **** 			 *        \n\n
 190:../tmk_core/protocol/lufa/LUFA-git/LUFA/Drivers/USB/Core/AVR8/../AVR8/Endpoint_AVR8.h **** 			 *
 191:../tmk_core/protocol/lufa/LUFA-git/LUFA/Drivers/USB/Core/AVR8/../AVR8/Endpoint_AVR8.h **** 			 *  \note This routine will automatically select the specified endpoint upon success. Upon failu
 192:../tmk_core/protocol/lufa/LUFA-git/LUFA/Drivers/USB/Core/AVR8/../AVR8/Endpoint_AVR8.h **** 			 *        which failed to reconfigure correctly will be selected.
 193:../tmk_core/protocol/lufa/LUFA-git/LUFA/Drivers/USB/Core/AVR8/../AVR8/Endpoint_AVR8.h **** 			 *
 194:../tmk_core/protocol/lufa/LUFA-git/LUFA/Drivers/USB/Core/AVR8/../AVR8/Endpoint_AVR8.h **** 			 *  \return Boolean \c true if the configuration succeeded, \c false otherwise.
 195:../tmk_core/protocol/lufa/LUFA-git/LUFA/Drivers/USB/Core/AVR8/../AVR8/Endpoint_AVR8.h **** 			 */
 196:../tmk_core/protocol/lufa/LUFA-git/LUFA/Drivers/USB/Core/AVR8/../AVR8/Endpoint_AVR8.h **** 			static inline bool Endpoint_ConfigureEndpoint(const uint8_t Address,
 197:../tmk_core/protocol/lufa/LUFA-git/LUFA/Drivers/USB/Core/AVR8/../AVR8/Endpoint_AVR8.h **** 			                                              const uint8_t Type,
 198:../tmk_core/protocol/lufa/LUFA-git/LUFA/Drivers/USB/Core/AVR8/../AVR8/Endpoint_AVR8.h **** 			                                              const uint16_t Size,
 199:../tmk_core/protocol/lufa/LUFA-git/LUFA/Drivers/USB/Core/AVR8/../AVR8/Endpoint_AVR8.h **** 			                                              const uint8_t Banks) ATTR_ALWAYS_INLINE;
 200:../tmk_core/protocol/lufa/LUFA-git/LUFA/Drivers/USB/Core/AVR8/../AVR8/Endpoint_AVR8.h **** 			static inline bool Endpoint_ConfigureEndpoint(const uint8_t Address,
 201:../tmk_core/protocol/lufa/LUFA-git/LUFA/Drivers/USB/Core/AVR8/../AVR8/Endpoint_AVR8.h **** 			                                              const uint8_t Type,
 202:../tmk_core/protocol/lufa/LUFA-git/LUFA/Drivers/USB/Core/AVR8/../AVR8/Endpoint_AVR8.h **** 			                                              const uint16_t Size,
 203:../tmk_core/protocol/lufa/LUFA-git/LUFA/Drivers/USB/Core/AVR8/../AVR8/Endpoint_AVR8.h **** 			                                              const uint8_t Banks)
 204:../tmk_core/protocol/lufa/LUFA-git/LUFA/Drivers/USB/Core/AVR8/../AVR8/Endpoint_AVR8.h **** 			{
 205:../tmk_core/protocol/lufa/LUFA-git/LUFA/Drivers/USB/Core/AVR8/../AVR8/Endpoint_AVR8.h **** 				uint8_t Number = (Address & ENDPOINT_EPNUM_MASK);
 206:../tmk_core/protocol/lufa/LUFA-git/LUFA/Drivers/USB/Core/AVR8/../AVR8/Endpoint_AVR8.h **** 
 207:../tmk_core/protocol/lufa/LUFA-git/LUFA/Drivers/USB/Core/AVR8/../AVR8/Endpoint_AVR8.h **** 				if (Number >= ENDPOINT_TOTAL_ENDPOINTS)
 208:../tmk_core/protocol/lufa/LUFA-git/LUFA/Drivers/USB/Core/AVR8/../AVR8/Endpoint_AVR8.h **** 				  return false;
 209:../tmk_core/protocol/lufa/LUFA-git/LUFA/Drivers/USB/Core/AVR8/../AVR8/Endpoint_AVR8.h **** 
 210:../tmk_core/protocol/lufa/LUFA-git/LUFA/Drivers/USB/Core/AVR8/../AVR8/Endpoint_AVR8.h **** 				return Endpoint_ConfigureEndpoint_Prv(Number,
 211:../tmk_core/protocol/lufa/LUFA-git/LUFA/Drivers/USB/Core/AVR8/../AVR8/Endpoint_AVR8.h **** 				                                      ((Type << EPTYPE0) | ((Address & ENDPOINT_DIR_IN) ? (1 <<
 212:../tmk_core/protocol/lufa/LUFA-git/LUFA/Drivers/USB/Core/AVR8/../AVR8/Endpoint_AVR8.h **** 				                                      ((1 << ALLOC) | ((Banks > 1) ? (1 << EPBK0) : 0) | Endpoi
 213:../tmk_core/protocol/lufa/LUFA-git/LUFA/Drivers/USB/Core/AVR8/../AVR8/Endpoint_AVR8.h **** 			}
 214:../tmk_core/protocol/lufa/LUFA-git/LUFA/Drivers/USB/Core/AVR8/../AVR8/Endpoint_AVR8.h **** 
 215:../tmk_core/protocol/lufa/LUFA-git/LUFA/Drivers/USB/Core/AVR8/../AVR8/Endpoint_AVR8.h **** 			/** Indicates the number of bytes currently stored in the current endpoint's selected bank.
 216:../tmk_core/protocol/lufa/LUFA-git/LUFA/Drivers/USB/Core/AVR8/../AVR8/Endpoint_AVR8.h **** 			 *
 217:../tmk_core/protocol/lufa/LUFA-git/LUFA/Drivers/USB/Core/AVR8/../AVR8/Endpoint_AVR8.h **** 			 *  \ingroup Group_EndpointRW_AVR8
 218:../tmk_core/protocol/lufa/LUFA-git/LUFA/Drivers/USB/Core/AVR8/../AVR8/Endpoint_AVR8.h **** 			 *
 219:../tmk_core/protocol/lufa/LUFA-git/LUFA/Drivers/USB/Core/AVR8/../AVR8/Endpoint_AVR8.h **** 			 *  \return Total number of bytes in the currently selected Endpoint's FIFO buffer.
 220:../tmk_core/protocol/lufa/LUFA-git/LUFA/Drivers/USB/Core/AVR8/../AVR8/Endpoint_AVR8.h **** 			 */
 221:../tmk_core/protocol/lufa/LUFA-git/LUFA/Drivers/USB/Core/AVR8/../AVR8/Endpoint_AVR8.h **** 			static inline uint16_t Endpoint_BytesInEndpoint(void) ATTR_WARN_UNUSED_RESULT ATTR_ALWAYS_INLINE
 222:../tmk_core/protocol/lufa/LUFA-git/LUFA/Drivers/USB/Core/AVR8/../AVR8/Endpoint_AVR8.h **** 			static inline uint16_t Endpoint_BytesInEndpoint(void)
 223:../tmk_core/protocol/lufa/LUFA-git/LUFA/Drivers/USB/Core/AVR8/../AVR8/Endpoint_AVR8.h **** 			{
 224:../tmk_core/protocol/lufa/LUFA-git/LUFA/Drivers/USB/Core/AVR8/../AVR8/Endpoint_AVR8.h **** 				#if (defined(USB_SERIES_6_AVR) || defined(USB_SERIES_7_AVR))
 225:../tmk_core/protocol/lufa/LUFA-git/LUFA/Drivers/USB/Core/AVR8/../AVR8/Endpoint_AVR8.h **** 					return UEBCX;
 226:../tmk_core/protocol/lufa/LUFA-git/LUFA/Drivers/USB/Core/AVR8/../AVR8/Endpoint_AVR8.h **** 				#elif defined(USB_SERIES_4_AVR)
 227:../tmk_core/protocol/lufa/LUFA-git/LUFA/Drivers/USB/Core/AVR8/../AVR8/Endpoint_AVR8.h **** 					return (((uint16_t)UEBCHX << 8) | UEBCLX);
 228:../tmk_core/protocol/lufa/LUFA-git/LUFA/Drivers/USB/Core/AVR8/../AVR8/Endpoint_AVR8.h **** 				#elif defined(USB_SERIES_2_AVR)
 229:../tmk_core/protocol/lufa/LUFA-git/LUFA/Drivers/USB/Core/AVR8/../AVR8/Endpoint_AVR8.h **** 					return UEBCLX;
 230:../tmk_core/protocol/lufa/LUFA-git/LUFA/Drivers/USB/Core/AVR8/../AVR8/Endpoint_AVR8.h **** 				#endif
 231:../tmk_core/protocol/lufa/LUFA-git/LUFA/Drivers/USB/Core/AVR8/../AVR8/Endpoint_AVR8.h **** 			}
 232:../tmk_core/protocol/lufa/LUFA-git/LUFA/Drivers/USB/Core/AVR8/../AVR8/Endpoint_AVR8.h **** 
 233:../tmk_core/protocol/lufa/LUFA-git/LUFA/Drivers/USB/Core/AVR8/../AVR8/Endpoint_AVR8.h **** 			/** Determines the currently selected endpoint's direction.
 234:../tmk_core/protocol/lufa/LUFA-git/LUFA/Drivers/USB/Core/AVR8/../AVR8/Endpoint_AVR8.h **** 			 *
 235:../tmk_core/protocol/lufa/LUFA-git/LUFA/Drivers/USB/Core/AVR8/../AVR8/Endpoint_AVR8.h **** 			 *  \return The currently selected endpoint's direction, as a \c ENDPOINT_DIR_* mask.
 236:../tmk_core/protocol/lufa/LUFA-git/LUFA/Drivers/USB/Core/AVR8/../AVR8/Endpoint_AVR8.h **** 			 */
 237:../tmk_core/protocol/lufa/LUFA-git/LUFA/Drivers/USB/Core/AVR8/../AVR8/Endpoint_AVR8.h **** 			static inline uint8_t Endpoint_GetEndpointDirection(void) ATTR_WARN_UNUSED_RESULT ATTR_ALWAYS_IN
 238:../tmk_core/protocol/lufa/LUFA-git/LUFA/Drivers/USB/Core/AVR8/../AVR8/Endpoint_AVR8.h **** 			static inline uint8_t Endpoint_GetEndpointDirection(void)
 239:../tmk_core/protocol/lufa/LUFA-git/LUFA/Drivers/USB/Core/AVR8/../AVR8/Endpoint_AVR8.h **** 			{
 240:../tmk_core/protocol/lufa/LUFA-git/LUFA/Drivers/USB/Core/AVR8/../AVR8/Endpoint_AVR8.h **** 				return (UECFG0X & (1 << EPDIR)) ? ENDPOINT_DIR_IN : ENDPOINT_DIR_OUT;
 241:../tmk_core/protocol/lufa/LUFA-git/LUFA/Drivers/USB/Core/AVR8/../AVR8/Endpoint_AVR8.h **** 			}
 242:../tmk_core/protocol/lufa/LUFA-git/LUFA/Drivers/USB/Core/AVR8/../AVR8/Endpoint_AVR8.h **** 
 243:../tmk_core/protocol/lufa/LUFA-git/LUFA/Drivers/USB/Core/AVR8/../AVR8/Endpoint_AVR8.h **** 			/** Get the endpoint address of the currently selected endpoint. This is typically used to save
 244:../tmk_core/protocol/lufa/LUFA-git/LUFA/Drivers/USB/Core/AVR8/../AVR8/Endpoint_AVR8.h **** 			 *  the currently selected endpoint so that it can be restored after another endpoint has been
 245:../tmk_core/protocol/lufa/LUFA-git/LUFA/Drivers/USB/Core/AVR8/../AVR8/Endpoint_AVR8.h **** 			 *  manipulated.
 246:../tmk_core/protocol/lufa/LUFA-git/LUFA/Drivers/USB/Core/AVR8/../AVR8/Endpoint_AVR8.h **** 			 *
 247:../tmk_core/protocol/lufa/LUFA-git/LUFA/Drivers/USB/Core/AVR8/../AVR8/Endpoint_AVR8.h **** 			 *  \return Index of the currently selected endpoint.
 248:../tmk_core/protocol/lufa/LUFA-git/LUFA/Drivers/USB/Core/AVR8/../AVR8/Endpoint_AVR8.h **** 			 */
 249:../tmk_core/protocol/lufa/LUFA-git/LUFA/Drivers/USB/Core/AVR8/../AVR8/Endpoint_AVR8.h **** 			static inline uint8_t Endpoint_GetCurrentEndpoint(void) ATTR_WARN_UNUSED_RESULT ATTR_ALWAYS_INLI
 250:../tmk_core/protocol/lufa/LUFA-git/LUFA/Drivers/USB/Core/AVR8/../AVR8/Endpoint_AVR8.h **** 			static inline uint8_t Endpoint_GetCurrentEndpoint(void)
 251:../tmk_core/protocol/lufa/LUFA-git/LUFA/Drivers/USB/Core/AVR8/../AVR8/Endpoint_AVR8.h **** 			{
 252:../tmk_core/protocol/lufa/LUFA-git/LUFA/Drivers/USB/Core/AVR8/../AVR8/Endpoint_AVR8.h **** 				#if !defined(CONTROL_ONLY_DEVICE)
 253:../tmk_core/protocol/lufa/LUFA-git/LUFA/Drivers/USB/Core/AVR8/../AVR8/Endpoint_AVR8.h **** 					return ((UENUM & ENDPOINT_EPNUM_MASK) | Endpoint_GetEndpointDirection());
  60               		.loc 2 253 0
  61 0014 9091 E900 		lds r25,233
  62 0018 9F70      		andi r25,lo8(15)
  63               	.LBB179:
  64               	.LBB180:
 240:../tmk_core/protocol/lufa/LUFA-git/LUFA/Drivers/USB/Core/AVR8/../AVR8/Endpoint_AVR8.h **** 			}
  65               		.loc 2 240 0
  66 001a 3091 EC00 		lds r19,236
  67 001e 232F      		mov r18,r19
  68 0020 2170      		andi r18,lo8(1)
  69 0022 30FD      		sbrc r19,0
  70 0024 20E8      		ldi r18,lo8(-128)
  71               	.L4:
  72               	.LBE180:
  73               	.LBE179:
  74               		.loc 2 253 0
  75 0026 922B      		or r25,r18
  76               	.LVL3:
  77               	.LBE178:
  78               	.LBE177:
  79               	.LBB181:
  80               	.LBB182:
 254:../tmk_core/protocol/lufa/LUFA-git/LUFA/Drivers/USB/Core/AVR8/../AVR8/Endpoint_AVR8.h **** 				#else
 255:../tmk_core/protocol/lufa/LUFA-git/LUFA/Drivers/USB/Core/AVR8/../AVR8/Endpoint_AVR8.h **** 					return ENDPOINT_CONTROLEP;
 256:../tmk_core/protocol/lufa/LUFA-git/LUFA/Drivers/USB/Core/AVR8/../AVR8/Endpoint_AVR8.h **** 				#endif
 257:../tmk_core/protocol/lufa/LUFA-git/LUFA/Drivers/USB/Core/AVR8/../AVR8/Endpoint_AVR8.h **** 			}
 258:../tmk_core/protocol/lufa/LUFA-git/LUFA/Drivers/USB/Core/AVR8/../AVR8/Endpoint_AVR8.h **** 
 259:../tmk_core/protocol/lufa/LUFA-git/LUFA/Drivers/USB/Core/AVR8/../AVR8/Endpoint_AVR8.h **** 			/** Selects the given endpoint address.
 260:../tmk_core/protocol/lufa/LUFA-git/LUFA/Drivers/USB/Core/AVR8/../AVR8/Endpoint_AVR8.h **** 			 *
 261:../tmk_core/protocol/lufa/LUFA-git/LUFA/Drivers/USB/Core/AVR8/../AVR8/Endpoint_AVR8.h **** 			 *  Any endpoint operations which do not require the endpoint address to be indicated will opera
 262:../tmk_core/protocol/lufa/LUFA-git/LUFA/Drivers/USB/Core/AVR8/../AVR8/Endpoint_AVR8.h **** 			 *  the currently selected endpoint.
 263:../tmk_core/protocol/lufa/LUFA-git/LUFA/Drivers/USB/Core/AVR8/../AVR8/Endpoint_AVR8.h **** 			 *
 264:../tmk_core/protocol/lufa/LUFA-git/LUFA/Drivers/USB/Core/AVR8/../AVR8/Endpoint_AVR8.h **** 			 *  \param[in] Address Endpoint address to select.
 265:../tmk_core/protocol/lufa/LUFA-git/LUFA/Drivers/USB/Core/AVR8/../AVR8/Endpoint_AVR8.h **** 			 */
 266:../tmk_core/protocol/lufa/LUFA-git/LUFA/Drivers/USB/Core/AVR8/../AVR8/Endpoint_AVR8.h **** 			static inline void Endpoint_SelectEndpoint(const uint8_t Address) ATTR_ALWAYS_INLINE;
 267:../tmk_core/protocol/lufa/LUFA-git/LUFA/Drivers/USB/Core/AVR8/../AVR8/Endpoint_AVR8.h **** 			static inline void Endpoint_SelectEndpoint(const uint8_t Address)
 268:../tmk_core/protocol/lufa/LUFA-git/LUFA/Drivers/USB/Core/AVR8/../AVR8/Endpoint_AVR8.h **** 			{
 269:../tmk_core/protocol/lufa/LUFA-git/LUFA/Drivers/USB/Core/AVR8/../AVR8/Endpoint_AVR8.h **** 				#if !defined(CONTROL_ONLY_DEVICE)
 270:../tmk_core/protocol/lufa/LUFA-git/LUFA/Drivers/USB/Core/AVR8/../AVR8/Endpoint_AVR8.h **** 					UENUM = (Address & ENDPOINT_EPNUM_MASK);
  81               		.loc 2 270 0
  82 0028 24E0      		ldi r18,lo8(4)
  83 002a 2093 E900 		sts 233,r18
  84               	.LVL4:
  85               	.LBE182:
  86               	.LBE181:
  87               	.LBB183:
  88               	.LBB184:
 271:../tmk_core/protocol/lufa/LUFA-git/LUFA/Drivers/USB/Core/AVR8/../AVR8/Endpoint_AVR8.h **** 				#endif
 272:../tmk_core/protocol/lufa/LUFA-git/LUFA/Drivers/USB/Core/AVR8/../AVR8/Endpoint_AVR8.h **** 			}
 273:../tmk_core/protocol/lufa/LUFA-git/LUFA/Drivers/USB/Core/AVR8/../AVR8/Endpoint_AVR8.h **** 
 274:../tmk_core/protocol/lufa/LUFA-git/LUFA/Drivers/USB/Core/AVR8/../AVR8/Endpoint_AVR8.h **** 			/** Resets the endpoint bank FIFO. This clears all the endpoint banks and resets the USB control
 275:../tmk_core/protocol/lufa/LUFA-git/LUFA/Drivers/USB/Core/AVR8/../AVR8/Endpoint_AVR8.h **** 			 *  data In and Out pointers to the bank's contents.
 276:../tmk_core/protocol/lufa/LUFA-git/LUFA/Drivers/USB/Core/AVR8/../AVR8/Endpoint_AVR8.h **** 			 *
 277:../tmk_core/protocol/lufa/LUFA-git/LUFA/Drivers/USB/Core/AVR8/../AVR8/Endpoint_AVR8.h **** 			 *  \param[in] Address  Endpoint address whose FIFO buffers are to be reset.
 278:../tmk_core/protocol/lufa/LUFA-git/LUFA/Drivers/USB/Core/AVR8/../AVR8/Endpoint_AVR8.h **** 			 */
 279:../tmk_core/protocol/lufa/LUFA-git/LUFA/Drivers/USB/Core/AVR8/../AVR8/Endpoint_AVR8.h **** 			static inline void Endpoint_ResetEndpoint(const uint8_t Address) ATTR_ALWAYS_INLINE;
 280:../tmk_core/protocol/lufa/LUFA-git/LUFA/Drivers/USB/Core/AVR8/../AVR8/Endpoint_AVR8.h **** 			static inline void Endpoint_ResetEndpoint(const uint8_t Address)
 281:../tmk_core/protocol/lufa/LUFA-git/LUFA/Drivers/USB/Core/AVR8/../AVR8/Endpoint_AVR8.h **** 			{
 282:../tmk_core/protocol/lufa/LUFA-git/LUFA/Drivers/USB/Core/AVR8/../AVR8/Endpoint_AVR8.h **** 				UERST = (1 << (Address & ENDPOINT_EPNUM_MASK));
 283:../tmk_core/protocol/lufa/LUFA-git/LUFA/Drivers/USB/Core/AVR8/../AVR8/Endpoint_AVR8.h **** 				UERST = 0;
 284:../tmk_core/protocol/lufa/LUFA-git/LUFA/Drivers/USB/Core/AVR8/../AVR8/Endpoint_AVR8.h **** 			}
 285:../tmk_core/protocol/lufa/LUFA-git/LUFA/Drivers/USB/Core/AVR8/../AVR8/Endpoint_AVR8.h **** 
 286:../tmk_core/protocol/lufa/LUFA-git/LUFA/Drivers/USB/Core/AVR8/../AVR8/Endpoint_AVR8.h **** 			/** Enables the currently selected endpoint so that data can be sent and received through it to
 287:../tmk_core/protocol/lufa/LUFA-git/LUFA/Drivers/USB/Core/AVR8/../AVR8/Endpoint_AVR8.h **** 			 *  and from a host.
 288:../tmk_core/protocol/lufa/LUFA-git/LUFA/Drivers/USB/Core/AVR8/../AVR8/Endpoint_AVR8.h **** 			 *
 289:../tmk_core/protocol/lufa/LUFA-git/LUFA/Drivers/USB/Core/AVR8/../AVR8/Endpoint_AVR8.h **** 			 *  \note Endpoints must first be configured properly via \ref Endpoint_ConfigureEndpoint().
 290:../tmk_core/protocol/lufa/LUFA-git/LUFA/Drivers/USB/Core/AVR8/../AVR8/Endpoint_AVR8.h **** 			 */
 291:../tmk_core/protocol/lufa/LUFA-git/LUFA/Drivers/USB/Core/AVR8/../AVR8/Endpoint_AVR8.h **** 			static inline void Endpoint_EnableEndpoint(void) ATTR_ALWAYS_INLINE;
 292:../tmk_core/protocol/lufa/LUFA-git/LUFA/Drivers/USB/Core/AVR8/../AVR8/Endpoint_AVR8.h **** 			static inline void Endpoint_EnableEndpoint(void)
 293:../tmk_core/protocol/lufa/LUFA-git/LUFA/Drivers/USB/Core/AVR8/../AVR8/Endpoint_AVR8.h **** 			{
 294:../tmk_core/protocol/lufa/LUFA-git/LUFA/Drivers/USB/Core/AVR8/../AVR8/Endpoint_AVR8.h **** 				UECONX |= (1 << EPEN);
 295:../tmk_core/protocol/lufa/LUFA-git/LUFA/Drivers/USB/Core/AVR8/../AVR8/Endpoint_AVR8.h **** 			}
 296:../tmk_core/protocol/lufa/LUFA-git/LUFA/Drivers/USB/Core/AVR8/../AVR8/Endpoint_AVR8.h **** 
 297:../tmk_core/protocol/lufa/LUFA-git/LUFA/Drivers/USB/Core/AVR8/../AVR8/Endpoint_AVR8.h **** 			/** Disables the currently selected endpoint so that data cannot be sent and received through it
 298:../tmk_core/protocol/lufa/LUFA-git/LUFA/Drivers/USB/Core/AVR8/../AVR8/Endpoint_AVR8.h **** 			 *  to and from a host.
 299:../tmk_core/protocol/lufa/LUFA-git/LUFA/Drivers/USB/Core/AVR8/../AVR8/Endpoint_AVR8.h **** 			 */
 300:../tmk_core/protocol/lufa/LUFA-git/LUFA/Drivers/USB/Core/AVR8/../AVR8/Endpoint_AVR8.h **** 			static inline void Endpoint_DisableEndpoint(void) ATTR_ALWAYS_INLINE;
 301:../tmk_core/protocol/lufa/LUFA-git/LUFA/Drivers/USB/Core/AVR8/../AVR8/Endpoint_AVR8.h **** 			static inline void Endpoint_DisableEndpoint(void)
 302:../tmk_core/protocol/lufa/LUFA-git/LUFA/Drivers/USB/Core/AVR8/../AVR8/Endpoint_AVR8.h **** 			{
 303:../tmk_core/protocol/lufa/LUFA-git/LUFA/Drivers/USB/Core/AVR8/../AVR8/Endpoint_AVR8.h **** 				UECONX &= ~(1 << EPEN);
 304:../tmk_core/protocol/lufa/LUFA-git/LUFA/Drivers/USB/Core/AVR8/../AVR8/Endpoint_AVR8.h **** 			}
 305:../tmk_core/protocol/lufa/LUFA-git/LUFA/Drivers/USB/Core/AVR8/../AVR8/Endpoint_AVR8.h **** 
 306:../tmk_core/protocol/lufa/LUFA-git/LUFA/Drivers/USB/Core/AVR8/../AVR8/Endpoint_AVR8.h **** 			/** Determines if the currently selected endpoint is enabled, but not necessarily configured.
 307:../tmk_core/protocol/lufa/LUFA-git/LUFA/Drivers/USB/Core/AVR8/../AVR8/Endpoint_AVR8.h **** 			 *
 308:../tmk_core/protocol/lufa/LUFA-git/LUFA/Drivers/USB/Core/AVR8/../AVR8/Endpoint_AVR8.h **** 			 * \return Boolean \c true if the currently selected endpoint is enabled, \c false otherwise.
 309:../tmk_core/protocol/lufa/LUFA-git/LUFA/Drivers/USB/Core/AVR8/../AVR8/Endpoint_AVR8.h **** 			 */
 310:../tmk_core/protocol/lufa/LUFA-git/LUFA/Drivers/USB/Core/AVR8/../AVR8/Endpoint_AVR8.h **** 			static inline bool Endpoint_IsEnabled(void) ATTR_WARN_UNUSED_RESULT ATTR_ALWAYS_INLINE;
 311:../tmk_core/protocol/lufa/LUFA-git/LUFA/Drivers/USB/Core/AVR8/../AVR8/Endpoint_AVR8.h **** 			static inline bool Endpoint_IsEnabled(void)
 312:../tmk_core/protocol/lufa/LUFA-git/LUFA/Drivers/USB/Core/AVR8/../AVR8/Endpoint_AVR8.h **** 			{
 313:../tmk_core/protocol/lufa/LUFA-git/LUFA/Drivers/USB/Core/AVR8/../AVR8/Endpoint_AVR8.h **** 				return ((UECONX & (1 << EPEN)) ? true : false);
  89               		.loc 2 313 0
  90 002e 2091 EB00 		lds r18,235
  91               	.LBE184:
  92               	.LBE183:
 506:../tmk_core/protocol/lufa/lufa.c ****         return -1;
 507:../tmk_core/protocol/lufa/lufa.c **** 
 508:../tmk_core/protocol/lufa/lufa.c ****     uint8_t ep = Endpoint_GetCurrentEndpoint();
 509:../tmk_core/protocol/lufa/lufa.c ****     Endpoint_SelectEndpoint(CONSOLE_IN_EPNUM);
 510:../tmk_core/protocol/lufa/lufa.c ****     if (!Endpoint_IsEnabled() || !Endpoint_IsConfigured()) {
  93               		.loc 1 510 0
  94 0032 20FF      		sbrs r18,0
  95 0034 00C0      		rjmp .L9
  96               	.LBB185:
  97               	.LBB186:
 314:../tmk_core/protocol/lufa/LUFA-git/LUFA/Drivers/USB/Core/AVR8/../AVR8/Endpoint_AVR8.h **** 			}
 315:../tmk_core/protocol/lufa/LUFA-git/LUFA/Drivers/USB/Core/AVR8/../AVR8/Endpoint_AVR8.h **** 
 316:../tmk_core/protocol/lufa/LUFA-git/LUFA/Drivers/USB/Core/AVR8/../AVR8/Endpoint_AVR8.h **** 			/** Retrieves the number of busy banks in the currently selected endpoint, which have been queue
 317:../tmk_core/protocol/lufa/LUFA-git/LUFA/Drivers/USB/Core/AVR8/../AVR8/Endpoint_AVR8.h **** 			 *  transmission via the \ref Endpoint_ClearIN() command, or are awaiting acknowledgment via the
 318:../tmk_core/protocol/lufa/LUFA-git/LUFA/Drivers/USB/Core/AVR8/../AVR8/Endpoint_AVR8.h **** 			 *  \ref Endpoint_ClearOUT() command.
 319:../tmk_core/protocol/lufa/LUFA-git/LUFA/Drivers/USB/Core/AVR8/../AVR8/Endpoint_AVR8.h **** 			 *
 320:../tmk_core/protocol/lufa/LUFA-git/LUFA/Drivers/USB/Core/AVR8/../AVR8/Endpoint_AVR8.h **** 			 *  \ingroup Group_EndpointPacketManagement_AVR8
 321:../tmk_core/protocol/lufa/LUFA-git/LUFA/Drivers/USB/Core/AVR8/../AVR8/Endpoint_AVR8.h **** 			 *
 322:../tmk_core/protocol/lufa/LUFA-git/LUFA/Drivers/USB/Core/AVR8/../AVR8/Endpoint_AVR8.h **** 			 *  \return Total number of busy banks in the selected endpoint.
 323:../tmk_core/protocol/lufa/LUFA-git/LUFA/Drivers/USB/Core/AVR8/../AVR8/Endpoint_AVR8.h **** 			 */
 324:../tmk_core/protocol/lufa/LUFA-git/LUFA/Drivers/USB/Core/AVR8/../AVR8/Endpoint_AVR8.h **** 			static inline uint8_t Endpoint_GetBusyBanks(void) ATTR_ALWAYS_INLINE ATTR_WARN_UNUSED_RESULT;
 325:../tmk_core/protocol/lufa/LUFA-git/LUFA/Drivers/USB/Core/AVR8/../AVR8/Endpoint_AVR8.h **** 			static inline uint8_t Endpoint_GetBusyBanks(void)
 326:../tmk_core/protocol/lufa/LUFA-git/LUFA/Drivers/USB/Core/AVR8/../AVR8/Endpoint_AVR8.h **** 			{
 327:../tmk_core/protocol/lufa/LUFA-git/LUFA/Drivers/USB/Core/AVR8/../AVR8/Endpoint_AVR8.h **** 				return (UESTA0X & (0x03 << NBUSYBK0));
 328:../tmk_core/protocol/lufa/LUFA-git/LUFA/Drivers/USB/Core/AVR8/../AVR8/Endpoint_AVR8.h **** 			}
 329:../tmk_core/protocol/lufa/LUFA-git/LUFA/Drivers/USB/Core/AVR8/../AVR8/Endpoint_AVR8.h **** 
 330:../tmk_core/protocol/lufa/LUFA-git/LUFA/Drivers/USB/Core/AVR8/../AVR8/Endpoint_AVR8.h **** 			/** Aborts all pending IN transactions on the currently selected endpoint, once the bank
 331:../tmk_core/protocol/lufa/LUFA-git/LUFA/Drivers/USB/Core/AVR8/../AVR8/Endpoint_AVR8.h **** 			 *  has been queued for transmission to the host via \ref Endpoint_ClearIN(). This function
 332:../tmk_core/protocol/lufa/LUFA-git/LUFA/Drivers/USB/Core/AVR8/../AVR8/Endpoint_AVR8.h **** 			 *  will terminate all queued transactions, resetting the endpoint banks ready for a new
 333:../tmk_core/protocol/lufa/LUFA-git/LUFA/Drivers/USB/Core/AVR8/../AVR8/Endpoint_AVR8.h **** 			 *  packet.
 334:../tmk_core/protocol/lufa/LUFA-git/LUFA/Drivers/USB/Core/AVR8/../AVR8/Endpoint_AVR8.h **** 			 *
 335:../tmk_core/protocol/lufa/LUFA-git/LUFA/Drivers/USB/Core/AVR8/../AVR8/Endpoint_AVR8.h **** 			 *  \ingroup Group_EndpointPacketManagement_AVR8
 336:../tmk_core/protocol/lufa/LUFA-git/LUFA/Drivers/USB/Core/AVR8/../AVR8/Endpoint_AVR8.h **** 			 */
 337:../tmk_core/protocol/lufa/LUFA-git/LUFA/Drivers/USB/Core/AVR8/../AVR8/Endpoint_AVR8.h **** 			static inline void Endpoint_AbortPendingIN(void)
 338:../tmk_core/protocol/lufa/LUFA-git/LUFA/Drivers/USB/Core/AVR8/../AVR8/Endpoint_AVR8.h **** 			{
 339:../tmk_core/protocol/lufa/LUFA-git/LUFA/Drivers/USB/Core/AVR8/../AVR8/Endpoint_AVR8.h **** 				while (Endpoint_GetBusyBanks() != 0)
 340:../tmk_core/protocol/lufa/LUFA-git/LUFA/Drivers/USB/Core/AVR8/../AVR8/Endpoint_AVR8.h **** 				{
 341:../tmk_core/protocol/lufa/LUFA-git/LUFA/Drivers/USB/Core/AVR8/../AVR8/Endpoint_AVR8.h **** 					UEINTX |= (1 << RXOUTI);
 342:../tmk_core/protocol/lufa/LUFA-git/LUFA/Drivers/USB/Core/AVR8/../AVR8/Endpoint_AVR8.h **** 					while (UEINTX & (1 << RXOUTI));
 343:../tmk_core/protocol/lufa/LUFA-git/LUFA/Drivers/USB/Core/AVR8/../AVR8/Endpoint_AVR8.h **** 				}
 344:../tmk_core/protocol/lufa/LUFA-git/LUFA/Drivers/USB/Core/AVR8/../AVR8/Endpoint_AVR8.h **** 			}
 345:../tmk_core/protocol/lufa/LUFA-git/LUFA/Drivers/USB/Core/AVR8/../AVR8/Endpoint_AVR8.h **** 
 346:../tmk_core/protocol/lufa/LUFA-git/LUFA/Drivers/USB/Core/AVR8/../AVR8/Endpoint_AVR8.h **** 			/** Determines if the currently selected endpoint may be read from (if data is waiting in the en
 347:../tmk_core/protocol/lufa/LUFA-git/LUFA/Drivers/USB/Core/AVR8/../AVR8/Endpoint_AVR8.h **** 			 *  bank and the endpoint is an OUT direction, or if the bank is not yet full if the endpoint is
 348:../tmk_core/protocol/lufa/LUFA-git/LUFA/Drivers/USB/Core/AVR8/../AVR8/Endpoint_AVR8.h **** 			 *  direction). This function will return false if an error has occurred in the endpoint, if the
 349:../tmk_core/protocol/lufa/LUFA-git/LUFA/Drivers/USB/Core/AVR8/../AVR8/Endpoint_AVR8.h **** 			 *  is an OUT direction and no packet (or an empty packet) has been received, or if the endpoint
 350:../tmk_core/protocol/lufa/LUFA-git/LUFA/Drivers/USB/Core/AVR8/../AVR8/Endpoint_AVR8.h **** 			 *  direction and the endpoint bank is full.
 351:../tmk_core/protocol/lufa/LUFA-git/LUFA/Drivers/USB/Core/AVR8/../AVR8/Endpoint_AVR8.h **** 			 *
 352:../tmk_core/protocol/lufa/LUFA-git/LUFA/Drivers/USB/Core/AVR8/../AVR8/Endpoint_AVR8.h **** 			 *  \ingroup Group_EndpointPacketManagement_AVR8
 353:../tmk_core/protocol/lufa/LUFA-git/LUFA/Drivers/USB/Core/AVR8/../AVR8/Endpoint_AVR8.h **** 			 *
 354:../tmk_core/protocol/lufa/LUFA-git/LUFA/Drivers/USB/Core/AVR8/../AVR8/Endpoint_AVR8.h **** 			 *  \return Boolean \c true if the currently selected endpoint may be read from or written to, d
 355:../tmk_core/protocol/lufa/LUFA-git/LUFA/Drivers/USB/Core/AVR8/../AVR8/Endpoint_AVR8.h **** 			 *          on its direction.
 356:../tmk_core/protocol/lufa/LUFA-git/LUFA/Drivers/USB/Core/AVR8/../AVR8/Endpoint_AVR8.h **** 			 */
 357:../tmk_core/protocol/lufa/LUFA-git/LUFA/Drivers/USB/Core/AVR8/../AVR8/Endpoint_AVR8.h **** 			static inline bool Endpoint_IsReadWriteAllowed(void) ATTR_WARN_UNUSED_RESULT ATTR_ALWAYS_INLINE;
 358:../tmk_core/protocol/lufa/LUFA-git/LUFA/Drivers/USB/Core/AVR8/../AVR8/Endpoint_AVR8.h **** 			static inline bool Endpoint_IsReadWriteAllowed(void)
 359:../tmk_core/protocol/lufa/LUFA-git/LUFA/Drivers/USB/Core/AVR8/../AVR8/Endpoint_AVR8.h **** 			{
 360:../tmk_core/protocol/lufa/LUFA-git/LUFA/Drivers/USB/Core/AVR8/../AVR8/Endpoint_AVR8.h **** 				return ((UEINTX & (1 << RWAL)) ? true : false);
 361:../tmk_core/protocol/lufa/LUFA-git/LUFA/Drivers/USB/Core/AVR8/../AVR8/Endpoint_AVR8.h **** 			}
 362:../tmk_core/protocol/lufa/LUFA-git/LUFA/Drivers/USB/Core/AVR8/../AVR8/Endpoint_AVR8.h **** 
 363:../tmk_core/protocol/lufa/LUFA-git/LUFA/Drivers/USB/Core/AVR8/../AVR8/Endpoint_AVR8.h **** 			/** Determines if the currently selected endpoint is configured.
 364:../tmk_core/protocol/lufa/LUFA-git/LUFA/Drivers/USB/Core/AVR8/../AVR8/Endpoint_AVR8.h **** 			 *
 365:../tmk_core/protocol/lufa/LUFA-git/LUFA/Drivers/USB/Core/AVR8/../AVR8/Endpoint_AVR8.h **** 			 *  \return Boolean \c true if the currently selected endpoint has been configured, \c false oth
 366:../tmk_core/protocol/lufa/LUFA-git/LUFA/Drivers/USB/Core/AVR8/../AVR8/Endpoint_AVR8.h **** 			 */
 367:../tmk_core/protocol/lufa/LUFA-git/LUFA/Drivers/USB/Core/AVR8/../AVR8/Endpoint_AVR8.h **** 			static inline bool Endpoint_IsConfigured(void) ATTR_WARN_UNUSED_RESULT ATTR_ALWAYS_INLINE;
 368:../tmk_core/protocol/lufa/LUFA-git/LUFA/Drivers/USB/Core/AVR8/../AVR8/Endpoint_AVR8.h **** 			static inline bool Endpoint_IsConfigured(void)
 369:../tmk_core/protocol/lufa/LUFA-git/LUFA/Drivers/USB/Core/AVR8/../AVR8/Endpoint_AVR8.h **** 			{
 370:../tmk_core/protocol/lufa/LUFA-git/LUFA/Drivers/USB/Core/AVR8/../AVR8/Endpoint_AVR8.h **** 				return ((UESTA0X & (1 << CFGOK)) ? true : false);
  98               		.loc 2 370 0
  99 0036 2091 EE00 		lds r18,238
 100               	.LBE186:
 101               	.LBE185:
 102               		.loc 1 510 0
 103 003a 27FF      		sbrs r18,7
 104 003c 00C0      		rjmp .L9
 511:../tmk_core/protocol/lufa/lufa.c ****         goto ERROR_EXIT;
 512:../tmk_core/protocol/lufa/lufa.c ****     }
 513:../tmk_core/protocol/lufa/lufa.c **** 
 514:../tmk_core/protocol/lufa/lufa.c ****     if (timeouted && !Endpoint_IsReadWriteAllowed()) {
 105               		.loc 1 514 0
 106 003e 2091 0000 		lds r18,timeouted.4803
 107 0042 2223      		tst r18
 108 0044 01F0      		breq .L6
 109               	.LBB187:
 110               	.LBB188:
 360:../tmk_core/protocol/lufa/LUFA-git/LUFA/Drivers/USB/Core/AVR8/../AVR8/Endpoint_AVR8.h **** 			}
 111               		.loc 2 360 0
 112 0046 2091 E800 		lds r18,232
 113               	.LBE188:
 114               	.LBE187:
 115               		.loc 1 514 0
 116 004a 25FF      		sbrs r18,5
 117 004c 00C0      		rjmp .L9
 118               	.L6:
 515:../tmk_core/protocol/lufa/lufa.c ****         goto ERROR_EXIT;
 516:../tmk_core/protocol/lufa/lufa.c ****     }
 517:../tmk_core/protocol/lufa/lufa.c **** 
 518:../tmk_core/protocol/lufa/lufa.c ****     timeouted = false;
 119               		.loc 1 518 0
 120 004e 1092 0000 		sts timeouted.4803,__zero_reg__
 121               	.LVL5:
 519:../tmk_core/protocol/lufa/lufa.c **** 
 520:../tmk_core/protocol/lufa/lufa.c ****     uint8_t timeout = SEND_TIMEOUT;
 521:../tmk_core/protocol/lufa/lufa.c ****     while (!Endpoint_IsReadWriteAllowed()) {
 122               		.loc 1 521 0
 123 0052 26E0      		ldi r18,lo8(6)
 124               	.LVL6:
 125               	.L7:
 126               	.LBB189:
 127               	.LBB190:
 360:../tmk_core/protocol/lufa/LUFA-git/LUFA/Drivers/USB/Core/AVR8/../AVR8/Endpoint_AVR8.h **** 			}
 128               		.loc 2 360 0
 129 0054 3091 E800 		lds r19,232
 130               	.LBE190:
 131               	.LBE189:
 132               		.loc 1 521 0
 133 0058 35FD      		sbrc r19,5
 134 005a 00C0      		rjmp .L28
 522:../tmk_core/protocol/lufa/lufa.c ****         if (USB_DeviceState != DEVICE_STATE_Configured) {
 135               		.loc 1 522 0
 136 005c 3091 0000 		lds r19,USB_DeviceState
 137 0060 3430      		cpi r19,lo8(4)
 138 0062 01F4      		brne .L9
 139               	.LBB191:
 140               	.LBB192:
 371:../tmk_core/protocol/lufa/LUFA-git/LUFA/Drivers/USB/Core/AVR8/../AVR8/Endpoint_AVR8.h **** 			}
 372:../tmk_core/protocol/lufa/LUFA-git/LUFA/Drivers/USB/Core/AVR8/../AVR8/Endpoint_AVR8.h **** 
 373:../tmk_core/protocol/lufa/LUFA-git/LUFA/Drivers/USB/Core/AVR8/../AVR8/Endpoint_AVR8.h **** 			/** Returns a mask indicating which INTERRUPT type endpoints have interrupted - i.e. their
 374:../tmk_core/protocol/lufa/LUFA-git/LUFA/Drivers/USB/Core/AVR8/../AVR8/Endpoint_AVR8.h **** 			 *  interrupt duration has elapsed. Which endpoints have interrupted can be determined by
 375:../tmk_core/protocol/lufa/LUFA-git/LUFA/Drivers/USB/Core/AVR8/../AVR8/Endpoint_AVR8.h **** 			 *  masking the return value against <tt>(1 << <i>{Endpoint Number}</i>)</tt>.
 376:../tmk_core/protocol/lufa/LUFA-git/LUFA/Drivers/USB/Core/AVR8/../AVR8/Endpoint_AVR8.h **** 			 *
 377:../tmk_core/protocol/lufa/LUFA-git/LUFA/Drivers/USB/Core/AVR8/../AVR8/Endpoint_AVR8.h **** 			 *  \return Mask whose bits indicate which endpoints have interrupted.
 378:../tmk_core/protocol/lufa/LUFA-git/LUFA/Drivers/USB/Core/AVR8/../AVR8/Endpoint_AVR8.h **** 			 */
 379:../tmk_core/protocol/lufa/LUFA-git/LUFA/Drivers/USB/Core/AVR8/../AVR8/Endpoint_AVR8.h **** 			static inline uint8_t Endpoint_GetEndpointInterrupts(void) ATTR_WARN_UNUSED_RESULT ATTR_ALWAYS_I
 380:../tmk_core/protocol/lufa/LUFA-git/LUFA/Drivers/USB/Core/AVR8/../AVR8/Endpoint_AVR8.h **** 			static inline uint8_t Endpoint_GetEndpointInterrupts(void)
 381:../tmk_core/protocol/lufa/LUFA-git/LUFA/Drivers/USB/Core/AVR8/../AVR8/Endpoint_AVR8.h **** 			{
 382:../tmk_core/protocol/lufa/LUFA-git/LUFA/Drivers/USB/Core/AVR8/../AVR8/Endpoint_AVR8.h **** 				return UEINT;
 383:../tmk_core/protocol/lufa/LUFA-git/LUFA/Drivers/USB/Core/AVR8/../AVR8/Endpoint_AVR8.h **** 			}
 384:../tmk_core/protocol/lufa/LUFA-git/LUFA/Drivers/USB/Core/AVR8/../AVR8/Endpoint_AVR8.h **** 
 385:../tmk_core/protocol/lufa/LUFA-git/LUFA/Drivers/USB/Core/AVR8/../AVR8/Endpoint_AVR8.h **** 			/** Determines if the specified endpoint number has interrupted (valid only for INTERRUPT type
 386:../tmk_core/protocol/lufa/LUFA-git/LUFA/Drivers/USB/Core/AVR8/../AVR8/Endpoint_AVR8.h **** 			 *  endpoints).
 387:../tmk_core/protocol/lufa/LUFA-git/LUFA/Drivers/USB/Core/AVR8/../AVR8/Endpoint_AVR8.h **** 			 *
 388:../tmk_core/protocol/lufa/LUFA-git/LUFA/Drivers/USB/Core/AVR8/../AVR8/Endpoint_AVR8.h **** 			 *  \param[in] Address  Address of the endpoint whose interrupt flag should be tested.
 389:../tmk_core/protocol/lufa/LUFA-git/LUFA/Drivers/USB/Core/AVR8/../AVR8/Endpoint_AVR8.h **** 			 *
 390:../tmk_core/protocol/lufa/LUFA-git/LUFA/Drivers/USB/Core/AVR8/../AVR8/Endpoint_AVR8.h **** 			 *  \return Boolean \c true if the specified endpoint has interrupted, \c false otherwise.
 391:../tmk_core/protocol/lufa/LUFA-git/LUFA/Drivers/USB/Core/AVR8/../AVR8/Endpoint_AVR8.h **** 			 */
 392:../tmk_core/protocol/lufa/LUFA-git/LUFA/Drivers/USB/Core/AVR8/../AVR8/Endpoint_AVR8.h **** 			static inline bool Endpoint_HasEndpointInterrupted(const uint8_t Address) ATTR_WARN_UNUSED_RESUL
 393:../tmk_core/protocol/lufa/LUFA-git/LUFA/Drivers/USB/Core/AVR8/../AVR8/Endpoint_AVR8.h **** 			static inline bool Endpoint_HasEndpointInterrupted(const uint8_t Address)
 394:../tmk_core/protocol/lufa/LUFA-git/LUFA/Drivers/USB/Core/AVR8/../AVR8/Endpoint_AVR8.h **** 			{
 395:../tmk_core/protocol/lufa/LUFA-git/LUFA/Drivers/USB/Core/AVR8/../AVR8/Endpoint_AVR8.h **** 				return ((Endpoint_GetEndpointInterrupts() & (1 << (Address & ENDPOINT_EPNUM_MASK))) ? true : fa
 396:../tmk_core/protocol/lufa/LUFA-git/LUFA/Drivers/USB/Core/AVR8/../AVR8/Endpoint_AVR8.h **** 			}
 397:../tmk_core/protocol/lufa/LUFA-git/LUFA/Drivers/USB/Core/AVR8/../AVR8/Endpoint_AVR8.h **** 
 398:../tmk_core/protocol/lufa/LUFA-git/LUFA/Drivers/USB/Core/AVR8/../AVR8/Endpoint_AVR8.h **** 			/** Determines if the selected IN endpoint is ready for a new packet to be sent to the host.
 399:../tmk_core/protocol/lufa/LUFA-git/LUFA/Drivers/USB/Core/AVR8/../AVR8/Endpoint_AVR8.h **** 			 *
 400:../tmk_core/protocol/lufa/LUFA-git/LUFA/Drivers/USB/Core/AVR8/../AVR8/Endpoint_AVR8.h **** 			 *  \ingroup Group_EndpointPacketManagement_AVR8
 401:../tmk_core/protocol/lufa/LUFA-git/LUFA/Drivers/USB/Core/AVR8/../AVR8/Endpoint_AVR8.h **** 			 *
 402:../tmk_core/protocol/lufa/LUFA-git/LUFA/Drivers/USB/Core/AVR8/../AVR8/Endpoint_AVR8.h **** 			 *  \return Boolean \c true if the current endpoint is ready for an IN packet, \c false otherwis
 403:../tmk_core/protocol/lufa/LUFA-git/LUFA/Drivers/USB/Core/AVR8/../AVR8/Endpoint_AVR8.h **** 			 */
 404:../tmk_core/protocol/lufa/LUFA-git/LUFA/Drivers/USB/Core/AVR8/../AVR8/Endpoint_AVR8.h **** 			static inline bool Endpoint_IsINReady(void) ATTR_WARN_UNUSED_RESULT ATTR_ALWAYS_INLINE;
 405:../tmk_core/protocol/lufa/LUFA-git/LUFA/Drivers/USB/Core/AVR8/../AVR8/Endpoint_AVR8.h **** 			static inline bool Endpoint_IsINReady(void)
 406:../tmk_core/protocol/lufa/LUFA-git/LUFA/Drivers/USB/Core/AVR8/../AVR8/Endpoint_AVR8.h **** 			{
 407:../tmk_core/protocol/lufa/LUFA-git/LUFA/Drivers/USB/Core/AVR8/../AVR8/Endpoint_AVR8.h **** 				return ((UEINTX & (1 << TXINI)) ? true : false);
 408:../tmk_core/protocol/lufa/LUFA-git/LUFA/Drivers/USB/Core/AVR8/../AVR8/Endpoint_AVR8.h **** 			}
 409:../tmk_core/protocol/lufa/LUFA-git/LUFA/Drivers/USB/Core/AVR8/../AVR8/Endpoint_AVR8.h **** 
 410:../tmk_core/protocol/lufa/LUFA-git/LUFA/Drivers/USB/Core/AVR8/../AVR8/Endpoint_AVR8.h **** 			/** Determines if the selected OUT endpoint has received new packet from the host.
 411:../tmk_core/protocol/lufa/LUFA-git/LUFA/Drivers/USB/Core/AVR8/../AVR8/Endpoint_AVR8.h **** 			 *
 412:../tmk_core/protocol/lufa/LUFA-git/LUFA/Drivers/USB/Core/AVR8/../AVR8/Endpoint_AVR8.h **** 			 *  \ingroup Group_EndpointPacketManagement_AVR8
 413:../tmk_core/protocol/lufa/LUFA-git/LUFA/Drivers/USB/Core/AVR8/../AVR8/Endpoint_AVR8.h **** 			 *
 414:../tmk_core/protocol/lufa/LUFA-git/LUFA/Drivers/USB/Core/AVR8/../AVR8/Endpoint_AVR8.h **** 			 *  \return Boolean \c true if current endpoint is has received an OUT packet, \c false otherwis
 415:../tmk_core/protocol/lufa/LUFA-git/LUFA/Drivers/USB/Core/AVR8/../AVR8/Endpoint_AVR8.h **** 			 */
 416:../tmk_core/protocol/lufa/LUFA-git/LUFA/Drivers/USB/Core/AVR8/../AVR8/Endpoint_AVR8.h **** 			static inline bool Endpoint_IsOUTReceived(void) ATTR_WARN_UNUSED_RESULT ATTR_ALWAYS_INLINE;
 417:../tmk_core/protocol/lufa/LUFA-git/LUFA/Drivers/USB/Core/AVR8/../AVR8/Endpoint_AVR8.h **** 			static inline bool Endpoint_IsOUTReceived(void)
 418:../tmk_core/protocol/lufa/LUFA-git/LUFA/Drivers/USB/Core/AVR8/../AVR8/Endpoint_AVR8.h **** 			{
 419:../tmk_core/protocol/lufa/LUFA-git/LUFA/Drivers/USB/Core/AVR8/../AVR8/Endpoint_AVR8.h **** 				return ((UEINTX & (1 << RXOUTI)) ? true : false);
 420:../tmk_core/protocol/lufa/LUFA-git/LUFA/Drivers/USB/Core/AVR8/../AVR8/Endpoint_AVR8.h **** 			}
 421:../tmk_core/protocol/lufa/LUFA-git/LUFA/Drivers/USB/Core/AVR8/../AVR8/Endpoint_AVR8.h **** 
 422:../tmk_core/protocol/lufa/LUFA-git/LUFA/Drivers/USB/Core/AVR8/../AVR8/Endpoint_AVR8.h **** 			/** Determines if the current CONTROL type endpoint has received a SETUP packet.
 423:../tmk_core/protocol/lufa/LUFA-git/LUFA/Drivers/USB/Core/AVR8/../AVR8/Endpoint_AVR8.h **** 			 *
 424:../tmk_core/protocol/lufa/LUFA-git/LUFA/Drivers/USB/Core/AVR8/../AVR8/Endpoint_AVR8.h **** 			 *  \ingroup Group_EndpointPacketManagement_AVR8
 425:../tmk_core/protocol/lufa/LUFA-git/LUFA/Drivers/USB/Core/AVR8/../AVR8/Endpoint_AVR8.h **** 			 *
 426:../tmk_core/protocol/lufa/LUFA-git/LUFA/Drivers/USB/Core/AVR8/../AVR8/Endpoint_AVR8.h **** 			 *  \return Boolean \c true if the selected endpoint has received a SETUP packet, \c false other
 427:../tmk_core/protocol/lufa/LUFA-git/LUFA/Drivers/USB/Core/AVR8/../AVR8/Endpoint_AVR8.h **** 			 */
 428:../tmk_core/protocol/lufa/LUFA-git/LUFA/Drivers/USB/Core/AVR8/../AVR8/Endpoint_AVR8.h **** 			static inline bool Endpoint_IsSETUPReceived(void) ATTR_WARN_UNUSED_RESULT ATTR_ALWAYS_INLINE;
 429:../tmk_core/protocol/lufa/LUFA-git/LUFA/Drivers/USB/Core/AVR8/../AVR8/Endpoint_AVR8.h **** 			static inline bool Endpoint_IsSETUPReceived(void)
 430:../tmk_core/protocol/lufa/LUFA-git/LUFA/Drivers/USB/Core/AVR8/../AVR8/Endpoint_AVR8.h **** 			{
 431:../tmk_core/protocol/lufa/LUFA-git/LUFA/Drivers/USB/Core/AVR8/../AVR8/Endpoint_AVR8.h **** 				return ((UEINTX & (1 << RXSTPI)) ? true : false);
 432:../tmk_core/protocol/lufa/LUFA-git/LUFA/Drivers/USB/Core/AVR8/../AVR8/Endpoint_AVR8.h **** 			}
 433:../tmk_core/protocol/lufa/LUFA-git/LUFA/Drivers/USB/Core/AVR8/../AVR8/Endpoint_AVR8.h **** 
 434:../tmk_core/protocol/lufa/LUFA-git/LUFA/Drivers/USB/Core/AVR8/../AVR8/Endpoint_AVR8.h **** 			/** Clears a received SETUP packet on the currently selected CONTROL type endpoint, freeing up t
 435:../tmk_core/protocol/lufa/LUFA-git/LUFA/Drivers/USB/Core/AVR8/../AVR8/Endpoint_AVR8.h **** 			 *  endpoint for the next packet.
 436:../tmk_core/protocol/lufa/LUFA-git/LUFA/Drivers/USB/Core/AVR8/../AVR8/Endpoint_AVR8.h **** 			 *
 437:../tmk_core/protocol/lufa/LUFA-git/LUFA/Drivers/USB/Core/AVR8/../AVR8/Endpoint_AVR8.h **** 			 *  \ingroup Group_EndpointPacketManagement_AVR8
 438:../tmk_core/protocol/lufa/LUFA-git/LUFA/Drivers/USB/Core/AVR8/../AVR8/Endpoint_AVR8.h **** 			 *
 439:../tmk_core/protocol/lufa/LUFA-git/LUFA/Drivers/USB/Core/AVR8/../AVR8/Endpoint_AVR8.h **** 			 *  \note This is not applicable for non CONTROL type endpoints.
 440:../tmk_core/protocol/lufa/LUFA-git/LUFA/Drivers/USB/Core/AVR8/../AVR8/Endpoint_AVR8.h **** 			 */
 441:../tmk_core/protocol/lufa/LUFA-git/LUFA/Drivers/USB/Core/AVR8/../AVR8/Endpoint_AVR8.h **** 			static inline void Endpoint_ClearSETUP(void) ATTR_ALWAYS_INLINE;
 442:../tmk_core/protocol/lufa/LUFA-git/LUFA/Drivers/USB/Core/AVR8/../AVR8/Endpoint_AVR8.h **** 			static inline void Endpoint_ClearSETUP(void)
 443:../tmk_core/protocol/lufa/LUFA-git/LUFA/Drivers/USB/Core/AVR8/../AVR8/Endpoint_AVR8.h **** 			{
 444:../tmk_core/protocol/lufa/LUFA-git/LUFA/Drivers/USB/Core/AVR8/../AVR8/Endpoint_AVR8.h **** 				UEINTX &= ~(1 << RXSTPI);
 445:../tmk_core/protocol/lufa/LUFA-git/LUFA/Drivers/USB/Core/AVR8/../AVR8/Endpoint_AVR8.h **** 			}
 446:../tmk_core/protocol/lufa/LUFA-git/LUFA/Drivers/USB/Core/AVR8/../AVR8/Endpoint_AVR8.h **** 
 447:../tmk_core/protocol/lufa/LUFA-git/LUFA/Drivers/USB/Core/AVR8/../AVR8/Endpoint_AVR8.h **** 			/** Sends an IN packet to the host on the currently selected endpoint, freeing up the endpoint f
 448:../tmk_core/protocol/lufa/LUFA-git/LUFA/Drivers/USB/Core/AVR8/../AVR8/Endpoint_AVR8.h **** 			 *  next packet and switching to the alternative endpoint bank if double banked.
 449:../tmk_core/protocol/lufa/LUFA-git/LUFA/Drivers/USB/Core/AVR8/../AVR8/Endpoint_AVR8.h **** 			 *
 450:../tmk_core/protocol/lufa/LUFA-git/LUFA/Drivers/USB/Core/AVR8/../AVR8/Endpoint_AVR8.h **** 			 *  \ingroup Group_EndpointPacketManagement_AVR8
 451:../tmk_core/protocol/lufa/LUFA-git/LUFA/Drivers/USB/Core/AVR8/../AVR8/Endpoint_AVR8.h **** 			 */
 452:../tmk_core/protocol/lufa/LUFA-git/LUFA/Drivers/USB/Core/AVR8/../AVR8/Endpoint_AVR8.h **** 			static inline void Endpoint_ClearIN(void) ATTR_ALWAYS_INLINE;
 453:../tmk_core/protocol/lufa/LUFA-git/LUFA/Drivers/USB/Core/AVR8/../AVR8/Endpoint_AVR8.h **** 			static inline void Endpoint_ClearIN(void)
 454:../tmk_core/protocol/lufa/LUFA-git/LUFA/Drivers/USB/Core/AVR8/../AVR8/Endpoint_AVR8.h **** 			{
 455:../tmk_core/protocol/lufa/LUFA-git/LUFA/Drivers/USB/Core/AVR8/../AVR8/Endpoint_AVR8.h **** 				#if !defined(CONTROL_ONLY_DEVICE)
 456:../tmk_core/protocol/lufa/LUFA-git/LUFA/Drivers/USB/Core/AVR8/../AVR8/Endpoint_AVR8.h **** 					UEINTX &= ~((1 << TXINI) | (1 << FIFOCON));
 457:../tmk_core/protocol/lufa/LUFA-git/LUFA/Drivers/USB/Core/AVR8/../AVR8/Endpoint_AVR8.h **** 				#else
 458:../tmk_core/protocol/lufa/LUFA-git/LUFA/Drivers/USB/Core/AVR8/../AVR8/Endpoint_AVR8.h **** 					UEINTX &= ~(1 << TXINI);
 459:../tmk_core/protocol/lufa/LUFA-git/LUFA/Drivers/USB/Core/AVR8/../AVR8/Endpoint_AVR8.h **** 				#endif
 460:../tmk_core/protocol/lufa/LUFA-git/LUFA/Drivers/USB/Core/AVR8/../AVR8/Endpoint_AVR8.h **** 			}
 461:../tmk_core/protocol/lufa/LUFA-git/LUFA/Drivers/USB/Core/AVR8/../AVR8/Endpoint_AVR8.h **** 
 462:../tmk_core/protocol/lufa/LUFA-git/LUFA/Drivers/USB/Core/AVR8/../AVR8/Endpoint_AVR8.h **** 			/** Acknowledges an OUT packet to the host on the currently selected endpoint, freeing up the en
 463:../tmk_core/protocol/lufa/LUFA-git/LUFA/Drivers/USB/Core/AVR8/../AVR8/Endpoint_AVR8.h **** 			 *  for the next packet and switching to the alternative endpoint bank if double banked.
 464:../tmk_core/protocol/lufa/LUFA-git/LUFA/Drivers/USB/Core/AVR8/../AVR8/Endpoint_AVR8.h **** 			 *
 465:../tmk_core/protocol/lufa/LUFA-git/LUFA/Drivers/USB/Core/AVR8/../AVR8/Endpoint_AVR8.h **** 			 *  \ingroup Group_EndpointPacketManagement_AVR8
 466:../tmk_core/protocol/lufa/LUFA-git/LUFA/Drivers/USB/Core/AVR8/../AVR8/Endpoint_AVR8.h **** 			 */
 467:../tmk_core/protocol/lufa/LUFA-git/LUFA/Drivers/USB/Core/AVR8/../AVR8/Endpoint_AVR8.h **** 			static inline void Endpoint_ClearOUT(void) ATTR_ALWAYS_INLINE;
 468:../tmk_core/protocol/lufa/LUFA-git/LUFA/Drivers/USB/Core/AVR8/../AVR8/Endpoint_AVR8.h **** 			static inline void Endpoint_ClearOUT(void)
 469:../tmk_core/protocol/lufa/LUFA-git/LUFA/Drivers/USB/Core/AVR8/../AVR8/Endpoint_AVR8.h **** 			{
 470:../tmk_core/protocol/lufa/LUFA-git/LUFA/Drivers/USB/Core/AVR8/../AVR8/Endpoint_AVR8.h **** 				#if !defined(CONTROL_ONLY_DEVICE)
 471:../tmk_core/protocol/lufa/LUFA-git/LUFA/Drivers/USB/Core/AVR8/../AVR8/Endpoint_AVR8.h **** 					UEINTX &= ~((1 << RXOUTI) | (1 << FIFOCON));
 472:../tmk_core/protocol/lufa/LUFA-git/LUFA/Drivers/USB/Core/AVR8/../AVR8/Endpoint_AVR8.h **** 				#else
 473:../tmk_core/protocol/lufa/LUFA-git/LUFA/Drivers/USB/Core/AVR8/../AVR8/Endpoint_AVR8.h **** 					UEINTX &= ~(1 << RXOUTI);
 474:../tmk_core/protocol/lufa/LUFA-git/LUFA/Drivers/USB/Core/AVR8/../AVR8/Endpoint_AVR8.h **** 				#endif
 475:../tmk_core/protocol/lufa/LUFA-git/LUFA/Drivers/USB/Core/AVR8/../AVR8/Endpoint_AVR8.h **** 			}
 476:../tmk_core/protocol/lufa/LUFA-git/LUFA/Drivers/USB/Core/AVR8/../AVR8/Endpoint_AVR8.h **** 
 477:../tmk_core/protocol/lufa/LUFA-git/LUFA/Drivers/USB/Core/AVR8/../AVR8/Endpoint_AVR8.h **** 			/** Stalls the current endpoint, indicating to the host that a logical problem occurred with the
 478:../tmk_core/protocol/lufa/LUFA-git/LUFA/Drivers/USB/Core/AVR8/../AVR8/Endpoint_AVR8.h **** 			 *  indicated endpoint and that the current transfer sequence should be aborted. This provides a
 479:../tmk_core/protocol/lufa/LUFA-git/LUFA/Drivers/USB/Core/AVR8/../AVR8/Endpoint_AVR8.h **** 			 *  way for devices to indicate invalid commands to the host so that the current transfer can be
 480:../tmk_core/protocol/lufa/LUFA-git/LUFA/Drivers/USB/Core/AVR8/../AVR8/Endpoint_AVR8.h **** 			 *  aborted and the host can begin its own recovery sequence.
 481:../tmk_core/protocol/lufa/LUFA-git/LUFA/Drivers/USB/Core/AVR8/../AVR8/Endpoint_AVR8.h **** 			 *
 482:../tmk_core/protocol/lufa/LUFA-git/LUFA/Drivers/USB/Core/AVR8/../AVR8/Endpoint_AVR8.h **** 			 *  The currently selected endpoint remains stalled until either the \ref Endpoint_ClearStall() 
 483:../tmk_core/protocol/lufa/LUFA-git/LUFA/Drivers/USB/Core/AVR8/../AVR8/Endpoint_AVR8.h **** 			 *  is called, or the host issues a CLEAR FEATURE request to the device for the currently select
 484:../tmk_core/protocol/lufa/LUFA-git/LUFA/Drivers/USB/Core/AVR8/../AVR8/Endpoint_AVR8.h **** 			 *  endpoint.
 485:../tmk_core/protocol/lufa/LUFA-git/LUFA/Drivers/USB/Core/AVR8/../AVR8/Endpoint_AVR8.h **** 			 *
 486:../tmk_core/protocol/lufa/LUFA-git/LUFA/Drivers/USB/Core/AVR8/../AVR8/Endpoint_AVR8.h **** 			 *  \ingroup Group_EndpointPacketManagement_AVR8
 487:../tmk_core/protocol/lufa/LUFA-git/LUFA/Drivers/USB/Core/AVR8/../AVR8/Endpoint_AVR8.h **** 			 */
 488:../tmk_core/protocol/lufa/LUFA-git/LUFA/Drivers/USB/Core/AVR8/../AVR8/Endpoint_AVR8.h **** 			static inline void Endpoint_StallTransaction(void) ATTR_ALWAYS_INLINE;
 489:../tmk_core/protocol/lufa/LUFA-git/LUFA/Drivers/USB/Core/AVR8/../AVR8/Endpoint_AVR8.h **** 			static inline void Endpoint_StallTransaction(void)
 490:../tmk_core/protocol/lufa/LUFA-git/LUFA/Drivers/USB/Core/AVR8/../AVR8/Endpoint_AVR8.h **** 			{
 491:../tmk_core/protocol/lufa/LUFA-git/LUFA/Drivers/USB/Core/AVR8/../AVR8/Endpoint_AVR8.h **** 				UECONX |= (1 << STALLRQ);
 492:../tmk_core/protocol/lufa/LUFA-git/LUFA/Drivers/USB/Core/AVR8/../AVR8/Endpoint_AVR8.h **** 			}
 493:../tmk_core/protocol/lufa/LUFA-git/LUFA/Drivers/USB/Core/AVR8/../AVR8/Endpoint_AVR8.h **** 
 494:../tmk_core/protocol/lufa/LUFA-git/LUFA/Drivers/USB/Core/AVR8/../AVR8/Endpoint_AVR8.h **** 			/** Clears the STALL condition on the currently selected endpoint.
 495:../tmk_core/protocol/lufa/LUFA-git/LUFA/Drivers/USB/Core/AVR8/../AVR8/Endpoint_AVR8.h **** 			 *
 496:../tmk_core/protocol/lufa/LUFA-git/LUFA/Drivers/USB/Core/AVR8/../AVR8/Endpoint_AVR8.h **** 			 *  \ingroup Group_EndpointPacketManagement_AVR8
 497:../tmk_core/protocol/lufa/LUFA-git/LUFA/Drivers/USB/Core/AVR8/../AVR8/Endpoint_AVR8.h **** 			 */
 498:../tmk_core/protocol/lufa/LUFA-git/LUFA/Drivers/USB/Core/AVR8/../AVR8/Endpoint_AVR8.h **** 			static inline void Endpoint_ClearStall(void) ATTR_ALWAYS_INLINE;
 499:../tmk_core/protocol/lufa/LUFA-git/LUFA/Drivers/USB/Core/AVR8/../AVR8/Endpoint_AVR8.h **** 			static inline void Endpoint_ClearStall(void)
 500:../tmk_core/protocol/lufa/LUFA-git/LUFA/Drivers/USB/Core/AVR8/../AVR8/Endpoint_AVR8.h **** 			{
 501:../tmk_core/protocol/lufa/LUFA-git/LUFA/Drivers/USB/Core/AVR8/../AVR8/Endpoint_AVR8.h **** 				UECONX |= (1 << STALLRQC);
 502:../tmk_core/protocol/lufa/LUFA-git/LUFA/Drivers/USB/Core/AVR8/../AVR8/Endpoint_AVR8.h **** 			}
 503:../tmk_core/protocol/lufa/LUFA-git/LUFA/Drivers/USB/Core/AVR8/../AVR8/Endpoint_AVR8.h **** 
 504:../tmk_core/protocol/lufa/LUFA-git/LUFA/Drivers/USB/Core/AVR8/../AVR8/Endpoint_AVR8.h **** 			/** Determines if the currently selected endpoint is stalled, \c false otherwise.
 505:../tmk_core/protocol/lufa/LUFA-git/LUFA/Drivers/USB/Core/AVR8/../AVR8/Endpoint_AVR8.h **** 			 *
 506:../tmk_core/protocol/lufa/LUFA-git/LUFA/Drivers/USB/Core/AVR8/../AVR8/Endpoint_AVR8.h **** 			 *  \ingroup Group_EndpointPacketManagement_AVR8
 507:../tmk_core/protocol/lufa/LUFA-git/LUFA/Drivers/USB/Core/AVR8/../AVR8/Endpoint_AVR8.h **** 			 *
 508:../tmk_core/protocol/lufa/LUFA-git/LUFA/Drivers/USB/Core/AVR8/../AVR8/Endpoint_AVR8.h **** 			 *  \return Boolean \c true if the currently selected endpoint is stalled, \c false otherwise.
 509:../tmk_core/protocol/lufa/LUFA-git/LUFA/Drivers/USB/Core/AVR8/../AVR8/Endpoint_AVR8.h **** 			 */
 510:../tmk_core/protocol/lufa/LUFA-git/LUFA/Drivers/USB/Core/AVR8/../AVR8/Endpoint_AVR8.h **** 			static inline bool Endpoint_IsStalled(void) ATTR_WARN_UNUSED_RESULT ATTR_ALWAYS_INLINE;
 511:../tmk_core/protocol/lufa/LUFA-git/LUFA/Drivers/USB/Core/AVR8/../AVR8/Endpoint_AVR8.h **** 			static inline bool Endpoint_IsStalled(void)
 512:../tmk_core/protocol/lufa/LUFA-git/LUFA/Drivers/USB/Core/AVR8/../AVR8/Endpoint_AVR8.h **** 			{
 513:../tmk_core/protocol/lufa/LUFA-git/LUFA/Drivers/USB/Core/AVR8/../AVR8/Endpoint_AVR8.h **** 				return ((UECONX & (1 << STALLRQ)) ? true : false);
 141               		.loc 2 513 0
 142 0064 3091 EB00 		lds r19,235
 143               	.LBE192:
 144               	.LBE191:
 523:../tmk_core/protocol/lufa/lufa.c ****             goto ERROR_EXIT;
 524:../tmk_core/protocol/lufa/lufa.c ****         }
 525:../tmk_core/protocol/lufa/lufa.c ****         if (Endpoint_IsStalled()) {
 145               		.loc 1 525 0
 146 0068 35FD      		sbrc r19,5
 147 006a 00C0      		rjmp .L9
 148               	.LVL7:
 149 006c 2150      		subi r18,lo8(-(-1))
 150               	.LVL8:
 526:../tmk_core/protocol/lufa/lufa.c ****             goto ERROR_EXIT;
 527:../tmk_core/protocol/lufa/lufa.c ****         }
 528:../tmk_core/protocol/lufa/lufa.c ****         if (!(timeout--)) {
 151               		.loc 1 528 0
 152 006e 01F4      		brne .L8
 529:../tmk_core/protocol/lufa/lufa.c ****             timeouted = true;
 153               		.loc 1 529 0
 154 0070 81E0      		ldi r24,lo8(1)
 155               	.LVL9:
 156 0072 8093 0000 		sts timeouted.4803,r24
 530:../tmk_core/protocol/lufa/lufa.c ****             goto ERROR_EXIT;
 157               		.loc 1 530 0
 158 0076 00C0      		rjmp .L9
 159               	.LVL10:
 160               	.L8:
 161               	.LBB193:
 162               	.LBB194:
 163               		.file 3 "/usr/lib/avr/include/util/delay.h"
   1:/usr/lib/avr/include/util/delay.h **** /* Copyright (c) 2002, Marek Michalkiewicz
   2:/usr/lib/avr/include/util/delay.h ****    Copyright (c) 2004,2005,2007 Joerg Wunsch
   3:/usr/lib/avr/include/util/delay.h ****    Copyright (c) 2007  Florin-Viorel Petrov
   4:/usr/lib/avr/include/util/delay.h ****    All rights reserved.
   5:/usr/lib/avr/include/util/delay.h **** 
   6:/usr/lib/avr/include/util/delay.h ****    Redistribution and use in source and binary forms, with or without
   7:/usr/lib/avr/include/util/delay.h ****    modification, are permitted provided that the following conditions are met:
   8:/usr/lib/avr/include/util/delay.h **** 
   9:/usr/lib/avr/include/util/delay.h ****    * Redistributions of source code must retain the above copyright
  10:/usr/lib/avr/include/util/delay.h ****      notice, this list of conditions and the following disclaimer.
  11:/usr/lib/avr/include/util/delay.h **** 
  12:/usr/lib/avr/include/util/delay.h ****    * Redistributions in binary form must reproduce the above copyright
  13:/usr/lib/avr/include/util/delay.h ****      notice, this list of conditions and the following disclaimer in
  14:/usr/lib/avr/include/util/delay.h ****      the documentation and/or other materials provided with the
  15:/usr/lib/avr/include/util/delay.h ****      distribution.
  16:/usr/lib/avr/include/util/delay.h **** 
  17:/usr/lib/avr/include/util/delay.h ****    * Neither the name of the copyright holders nor the names of
  18:/usr/lib/avr/include/util/delay.h ****      contributors may be used to endorse or promote products derived
  19:/usr/lib/avr/include/util/delay.h ****      from this software without specific prior written permission.
  20:/usr/lib/avr/include/util/delay.h **** 
  21:/usr/lib/avr/include/util/delay.h ****   THIS SOFTWARE IS PROVIDED BY THE COPYRIGHT HOLDERS AND CONTRIBUTORS "AS IS"
  22:/usr/lib/avr/include/util/delay.h ****   AND ANY EXPRESS OR IMPLIED WARRANTIES, INCLUDING, BUT NOT LIMITED TO, THE
  23:/usr/lib/avr/include/util/delay.h ****   IMPLIED WARRANTIES OF MERCHANTABILITY AND FITNESS FOR A PARTICULAR PURPOSE
  24:/usr/lib/avr/include/util/delay.h ****   ARE DISCLAIMED. IN NO EVENT SHALL THE COPYRIGHT OWNER OR CONTRIBUTORS BE
  25:/usr/lib/avr/include/util/delay.h ****   LIABLE FOR ANY DIRECT, INDIRECT, INCIDENTAL, SPECIAL, EXEMPLARY, OR
  26:/usr/lib/avr/include/util/delay.h ****   CONSEQUENTIAL DAMAGES (INCLUDING, BUT NOT LIMITED TO, PROCUREMENT OF
  27:/usr/lib/avr/include/util/delay.h ****   SUBSTITUTE GOODS OR SERVICES; LOSS OF USE, DATA, OR PROFITS; OR BUSINESS
  28:/usr/lib/avr/include/util/delay.h ****   INTERRUPTION) HOWEVER CAUSED AND ON ANY THEORY OF LIABILITY, WHETHER IN
  29:/usr/lib/avr/include/util/delay.h ****   CONTRACT, STRICT LIABILITY, OR TORT (INCLUDING NEGLIGENCE OR OTHERWISE)
  30:/usr/lib/avr/include/util/delay.h ****   ARISING IN ANY WAY OUT OF THE USE OF THIS SOFTWARE, EVEN IF ADVISED OF THE
  31:/usr/lib/avr/include/util/delay.h ****   POSSIBILITY OF SUCH DAMAGE. */
  32:/usr/lib/avr/include/util/delay.h **** 
  33:/usr/lib/avr/include/util/delay.h **** /* $Id$ */
  34:/usr/lib/avr/include/util/delay.h **** 
  35:/usr/lib/avr/include/util/delay.h **** #ifndef _UTIL_DELAY_H_
  36:/usr/lib/avr/include/util/delay.h **** #define _UTIL_DELAY_H_ 1
  37:/usr/lib/avr/include/util/delay.h **** 
  38:/usr/lib/avr/include/util/delay.h **** #ifndef __HAS_DELAY_CYCLES
  39:/usr/lib/avr/include/util/delay.h **** #define __HAS_DELAY_CYCLES 1
  40:/usr/lib/avr/include/util/delay.h **** #endif
  41:/usr/lib/avr/include/util/delay.h **** 
  42:/usr/lib/avr/include/util/delay.h **** #include <inttypes.h>
  43:/usr/lib/avr/include/util/delay.h **** #include <util/delay_basic.h>
  44:/usr/lib/avr/include/util/delay.h **** #include <math.h>
  45:/usr/lib/avr/include/util/delay.h **** 
  46:/usr/lib/avr/include/util/delay.h **** /** \file */
  47:/usr/lib/avr/include/util/delay.h **** /** \defgroup util_delay <util/delay.h>: Convenience functions for busy-wait delay loops
  48:/usr/lib/avr/include/util/delay.h ****     \code
  49:/usr/lib/avr/include/util/delay.h ****     #define F_CPU 1000000UL  // 1 MHz
  50:/usr/lib/avr/include/util/delay.h ****     //#define F_CPU 14.7456E6
  51:/usr/lib/avr/include/util/delay.h ****     #include <util/delay.h>
  52:/usr/lib/avr/include/util/delay.h ****     \endcode
  53:/usr/lib/avr/include/util/delay.h **** 
  54:/usr/lib/avr/include/util/delay.h ****     \note As an alternative method, it is possible to pass the
  55:/usr/lib/avr/include/util/delay.h ****     F_CPU macro down to the compiler from the Makefile.
  56:/usr/lib/avr/include/util/delay.h ****     Obviously, in that case, no \c \#define statement should be
  57:/usr/lib/avr/include/util/delay.h ****     used.
  58:/usr/lib/avr/include/util/delay.h **** 
  59:/usr/lib/avr/include/util/delay.h ****     The functions in this header file are wrappers around the basic
  60:/usr/lib/avr/include/util/delay.h ****     busy-wait functions from <util/delay_basic.h>.  They are meant as
  61:/usr/lib/avr/include/util/delay.h ****     convenience functions where actual time values can be specified
  62:/usr/lib/avr/include/util/delay.h ****     rather than a number of cycles to wait for.  The idea behind is
  63:/usr/lib/avr/include/util/delay.h ****     that compile-time constant expressions will be eliminated by
  64:/usr/lib/avr/include/util/delay.h ****     compiler optimization so floating-point expressions can be used
  65:/usr/lib/avr/include/util/delay.h ****     to calculate the number of delay cycles needed based on the CPU
  66:/usr/lib/avr/include/util/delay.h ****     frequency passed by the macro F_CPU.
  67:/usr/lib/avr/include/util/delay.h **** 
  68:/usr/lib/avr/include/util/delay.h ****     \note In order for these functions to work as intended, compiler
  69:/usr/lib/avr/include/util/delay.h ****     optimizations <em>must</em> be enabled, and the delay time
  70:/usr/lib/avr/include/util/delay.h ****     <em>must</em> be an expression that is a known constant at
  71:/usr/lib/avr/include/util/delay.h ****     compile-time.  If these requirements are not met, the resulting
  72:/usr/lib/avr/include/util/delay.h ****     delay will be much longer (and basically unpredictable), and
  73:/usr/lib/avr/include/util/delay.h ****     applications that otherwise do not use floating-point calculations
  74:/usr/lib/avr/include/util/delay.h ****     will experience severe code bloat by the floating-point library
  75:/usr/lib/avr/include/util/delay.h ****     routines linked into the application.
  76:/usr/lib/avr/include/util/delay.h **** 
  77:/usr/lib/avr/include/util/delay.h ****     The functions available allow the specification of microsecond, and
  78:/usr/lib/avr/include/util/delay.h ****     millisecond delays directly, using the application-supplied macro
  79:/usr/lib/avr/include/util/delay.h ****     F_CPU as the CPU clock frequency (in Hertz).
  80:/usr/lib/avr/include/util/delay.h **** 
  81:/usr/lib/avr/include/util/delay.h **** */
  82:/usr/lib/avr/include/util/delay.h **** 
  83:/usr/lib/avr/include/util/delay.h **** #if !defined(__DOXYGEN__)
  84:/usr/lib/avr/include/util/delay.h **** static inline void _delay_us(double __us) __attribute__((always_inline));
  85:/usr/lib/avr/include/util/delay.h **** static inline void _delay_ms(double __ms) __attribute__((always_inline));
  86:/usr/lib/avr/include/util/delay.h **** #endif
  87:/usr/lib/avr/include/util/delay.h **** 
  88:/usr/lib/avr/include/util/delay.h **** #ifndef F_CPU
  89:/usr/lib/avr/include/util/delay.h **** /* prevent compiler error by supplying a default */
  90:/usr/lib/avr/include/util/delay.h **** # warning "F_CPU not defined for <util/delay.h>"
  91:/usr/lib/avr/include/util/delay.h **** # define F_CPU 1000000UL
  92:/usr/lib/avr/include/util/delay.h **** #endif
  93:/usr/lib/avr/include/util/delay.h **** 
  94:/usr/lib/avr/include/util/delay.h **** #ifndef __OPTIMIZE__
  95:/usr/lib/avr/include/util/delay.h **** # warning "Compiler optimizations disabled; functions from <util/delay.h> won't work as designed"
  96:/usr/lib/avr/include/util/delay.h **** #endif
  97:/usr/lib/avr/include/util/delay.h **** 
  98:/usr/lib/avr/include/util/delay.h **** #if __HAS_DELAY_CYCLES && defined(__OPTIMIZE__) && \
  99:/usr/lib/avr/include/util/delay.h ****   !defined(__DELAY_BACKWARD_COMPATIBLE__) &&	   \
 100:/usr/lib/avr/include/util/delay.h ****   __STDC_HOSTED__
 101:/usr/lib/avr/include/util/delay.h **** #  include <math.h>
 102:/usr/lib/avr/include/util/delay.h **** #endif
 103:/usr/lib/avr/include/util/delay.h **** 
 104:/usr/lib/avr/include/util/delay.h **** /**
 105:/usr/lib/avr/include/util/delay.h ****    \ingroup util_delay
 106:/usr/lib/avr/include/util/delay.h **** 
 107:/usr/lib/avr/include/util/delay.h ****    Perform a delay of \c __ms milliseconds, using _delay_loop_2().
 108:/usr/lib/avr/include/util/delay.h **** 
 109:/usr/lib/avr/include/util/delay.h ****    The macro F_CPU is supposed to be defined to a
 110:/usr/lib/avr/include/util/delay.h ****    constant defining the CPU clock frequency (in Hertz).
 111:/usr/lib/avr/include/util/delay.h **** 
 112:/usr/lib/avr/include/util/delay.h ****    The maximal possible delay is 262.14 ms / F_CPU in MHz.
 113:/usr/lib/avr/include/util/delay.h **** 
 114:/usr/lib/avr/include/util/delay.h ****    When the user request delay which exceed the maximum possible one,
 115:/usr/lib/avr/include/util/delay.h ****    _delay_ms() provides a decreased resolution functionality. In this
 116:/usr/lib/avr/include/util/delay.h ****    mode _delay_ms() will work with a resolution of 1/10 ms, providing
 117:/usr/lib/avr/include/util/delay.h ****    delays up to 6.5535 seconds (independent from CPU frequency).  The
 118:/usr/lib/avr/include/util/delay.h ****    user will not be informed about decreased resolution.
 119:/usr/lib/avr/include/util/delay.h **** 
 120:/usr/lib/avr/include/util/delay.h ****    If the avr-gcc toolchain has __builtin_avr_delay_cycles(unsigned long)
 121:/usr/lib/avr/include/util/delay.h ****    support, maximal possible delay is 4294967.295 ms/ F_CPU in MHz. For
 122:/usr/lib/avr/include/util/delay.h ****    values greater than the maximal possible delay, overflows results in
 123:/usr/lib/avr/include/util/delay.h ****    no delay i.e., 0ms.
 124:/usr/lib/avr/include/util/delay.h **** 
 125:/usr/lib/avr/include/util/delay.h ****    Conversion of __us into clock cycles may not always result in integer.
 126:/usr/lib/avr/include/util/delay.h ****    By default, the clock cycles rounded up to next integer. This ensures that
 127:/usr/lib/avr/include/util/delay.h ****    the user gets atleast __us microseconds of delay.
 128:/usr/lib/avr/include/util/delay.h **** 
 129:/usr/lib/avr/include/util/delay.h ****    Alternatively, user can define __DELAY_ROUND_DOWN__ and __DELAY_ROUND_CLOSEST__
 130:/usr/lib/avr/include/util/delay.h ****    to round down and round to closest integer.
 131:/usr/lib/avr/include/util/delay.h **** 
 132:/usr/lib/avr/include/util/delay.h ****    Note: The new implementation of _delay_ms(double __ms) with 
 133:/usr/lib/avr/include/util/delay.h ****     __builtin_avr_delay_cycles(unsigned long) support is not backward compatible. 
 134:/usr/lib/avr/include/util/delay.h ****    User can define __DELAY_BACKWARD_COMPATIBLE__ to get a backward compatible delay.
 135:/usr/lib/avr/include/util/delay.h ****    Also, the backward compatible
 136:/usr/lib/avr/include/util/delay.h ****    algorithm will be chosen if the code is compiled in a <em>freestanding
 137:/usr/lib/avr/include/util/delay.h ****    environment</em> (GCC option \c -ffreestanding), as the math functions
 138:/usr/lib/avr/include/util/delay.h ****    required for rounding are not available to the compiler then.
 139:/usr/lib/avr/include/util/delay.h **** 
 140:/usr/lib/avr/include/util/delay.h ****  */
 141:/usr/lib/avr/include/util/delay.h **** void
 142:/usr/lib/avr/include/util/delay.h **** _delay_ms(double __ms)
 143:/usr/lib/avr/include/util/delay.h **** {
 144:/usr/lib/avr/include/util/delay.h **** 	double __tmp ; 
 145:/usr/lib/avr/include/util/delay.h **** #if __HAS_DELAY_CYCLES && defined(__OPTIMIZE__) && \
 146:/usr/lib/avr/include/util/delay.h ****   !defined(__DELAY_BACKWARD_COMPATIBLE__) &&	   \
 147:/usr/lib/avr/include/util/delay.h ****   __STDC_HOSTED__
 148:/usr/lib/avr/include/util/delay.h **** 	uint32_t __ticks_dc;
 149:/usr/lib/avr/include/util/delay.h **** 	extern void __builtin_avr_delay_cycles(unsigned long);
 150:/usr/lib/avr/include/util/delay.h **** 	__tmp = ((F_CPU) / 1e3) * __ms;
 151:/usr/lib/avr/include/util/delay.h **** 
 152:/usr/lib/avr/include/util/delay.h **** 	#if defined(__DELAY_ROUND_DOWN__)
 153:/usr/lib/avr/include/util/delay.h **** 		__ticks_dc = (uint32_t)fabs(__tmp);
 154:/usr/lib/avr/include/util/delay.h **** 
 155:/usr/lib/avr/include/util/delay.h **** 	#elif defined(__DELAY_ROUND_CLOSEST__)
 156:/usr/lib/avr/include/util/delay.h **** 		__ticks_dc = (uint32_t)(fabs(__tmp)+0.5);
 157:/usr/lib/avr/include/util/delay.h **** 
 158:/usr/lib/avr/include/util/delay.h **** 	#else
 159:/usr/lib/avr/include/util/delay.h **** 		//round up by default
 160:/usr/lib/avr/include/util/delay.h **** 		__ticks_dc = (uint32_t)(ceil(fabs(__tmp)));
 161:/usr/lib/avr/include/util/delay.h **** 	#endif
 162:/usr/lib/avr/include/util/delay.h **** 
 163:/usr/lib/avr/include/util/delay.h **** 	__builtin_avr_delay_cycles(__ticks_dc);
 164               		.loc 3 163 0
 165 0078 EFE9      		ldi r30,lo8(3999)
 166 007a FFE0      		ldi r31,hi8(3999)
 167 007c 3197      	1:	sbiw r30,1
 168 007e 01F4      		brne 1b
 169 0080 00C0      		rjmp .
 170 0082 0000      		nop
 171 0084 00C0      		rjmp .L7
 172               	.LVL11:
 173               	.L28:
 174               	.LBE194:
 175               	.LBE193:
 176               	.LBB195:
 177               	.LBB196:
 514:../tmk_core/protocol/lufa/LUFA-git/LUFA/Drivers/USB/Core/AVR8/../AVR8/Endpoint_AVR8.h **** 			}
 515:../tmk_core/protocol/lufa/LUFA-git/LUFA/Drivers/USB/Core/AVR8/../AVR8/Endpoint_AVR8.h **** 
 516:../tmk_core/protocol/lufa/LUFA-git/LUFA/Drivers/USB/Core/AVR8/../AVR8/Endpoint_AVR8.h **** 			/** Resets the data toggle of the currently selected endpoint. */
 517:../tmk_core/protocol/lufa/LUFA-git/LUFA/Drivers/USB/Core/AVR8/../AVR8/Endpoint_AVR8.h **** 			static inline void Endpoint_ResetDataToggle(void) ATTR_ALWAYS_INLINE;
 518:../tmk_core/protocol/lufa/LUFA-git/LUFA/Drivers/USB/Core/AVR8/../AVR8/Endpoint_AVR8.h **** 			static inline void Endpoint_ResetDataToggle(void)
 519:../tmk_core/protocol/lufa/LUFA-git/LUFA/Drivers/USB/Core/AVR8/../AVR8/Endpoint_AVR8.h **** 			{
 520:../tmk_core/protocol/lufa/LUFA-git/LUFA/Drivers/USB/Core/AVR8/../AVR8/Endpoint_AVR8.h **** 				UECONX |= (1 << RSTDT);
 521:../tmk_core/protocol/lufa/LUFA-git/LUFA/Drivers/USB/Core/AVR8/../AVR8/Endpoint_AVR8.h **** 			}
 522:../tmk_core/protocol/lufa/LUFA-git/LUFA/Drivers/USB/Core/AVR8/../AVR8/Endpoint_AVR8.h **** 
 523:../tmk_core/protocol/lufa/LUFA-git/LUFA/Drivers/USB/Core/AVR8/../AVR8/Endpoint_AVR8.h **** 			/** Sets the direction of the currently selected endpoint.
 524:../tmk_core/protocol/lufa/LUFA-git/LUFA/Drivers/USB/Core/AVR8/../AVR8/Endpoint_AVR8.h **** 			 *
 525:../tmk_core/protocol/lufa/LUFA-git/LUFA/Drivers/USB/Core/AVR8/../AVR8/Endpoint_AVR8.h **** 			 *  \param[in] DirectionMask  New endpoint direction, as a \c ENDPOINT_DIR_* mask.
 526:../tmk_core/protocol/lufa/LUFA-git/LUFA/Drivers/USB/Core/AVR8/../AVR8/Endpoint_AVR8.h **** 			 */
 527:../tmk_core/protocol/lufa/LUFA-git/LUFA/Drivers/USB/Core/AVR8/../AVR8/Endpoint_AVR8.h **** 			static inline void Endpoint_SetEndpointDirection(const uint8_t DirectionMask) ATTR_ALWAYS_INLINE
 528:../tmk_core/protocol/lufa/LUFA-git/LUFA/Drivers/USB/Core/AVR8/../AVR8/Endpoint_AVR8.h **** 			static inline void Endpoint_SetEndpointDirection(const uint8_t DirectionMask)
 529:../tmk_core/protocol/lufa/LUFA-git/LUFA/Drivers/USB/Core/AVR8/../AVR8/Endpoint_AVR8.h **** 			{
 530:../tmk_core/protocol/lufa/LUFA-git/LUFA/Drivers/USB/Core/AVR8/../AVR8/Endpoint_AVR8.h **** 				UECFG0X = ((UECFG0X & ~(1 << EPDIR)) | (DirectionMask ? (1 << EPDIR) : 0));
 531:../tmk_core/protocol/lufa/LUFA-git/LUFA/Drivers/USB/Core/AVR8/../AVR8/Endpoint_AVR8.h **** 			}
 532:../tmk_core/protocol/lufa/LUFA-git/LUFA/Drivers/USB/Core/AVR8/../AVR8/Endpoint_AVR8.h **** 
 533:../tmk_core/protocol/lufa/LUFA-git/LUFA/Drivers/USB/Core/AVR8/../AVR8/Endpoint_AVR8.h **** 			/** Reads one byte from the currently selected endpoint's bank, for OUT direction endpoints.
 534:../tmk_core/protocol/lufa/LUFA-git/LUFA/Drivers/USB/Core/AVR8/../AVR8/Endpoint_AVR8.h **** 			 *
 535:../tmk_core/protocol/lufa/LUFA-git/LUFA/Drivers/USB/Core/AVR8/../AVR8/Endpoint_AVR8.h **** 			 *  \ingroup Group_EndpointPrimitiveRW_AVR8
 536:../tmk_core/protocol/lufa/LUFA-git/LUFA/Drivers/USB/Core/AVR8/../AVR8/Endpoint_AVR8.h **** 			 *
 537:../tmk_core/protocol/lufa/LUFA-git/LUFA/Drivers/USB/Core/AVR8/../AVR8/Endpoint_AVR8.h **** 			 *  \return Next byte in the currently selected endpoint's FIFO buffer.
 538:../tmk_core/protocol/lufa/LUFA-git/LUFA/Drivers/USB/Core/AVR8/../AVR8/Endpoint_AVR8.h **** 			 */
 539:../tmk_core/protocol/lufa/LUFA-git/LUFA/Drivers/USB/Core/AVR8/../AVR8/Endpoint_AVR8.h **** 			static inline uint8_t Endpoint_Read_8(void) ATTR_WARN_UNUSED_RESULT ATTR_ALWAYS_INLINE;
 540:../tmk_core/protocol/lufa/LUFA-git/LUFA/Drivers/USB/Core/AVR8/../AVR8/Endpoint_AVR8.h **** 			static inline uint8_t Endpoint_Read_8(void)
 541:../tmk_core/protocol/lufa/LUFA-git/LUFA/Drivers/USB/Core/AVR8/../AVR8/Endpoint_AVR8.h **** 			{
 542:../tmk_core/protocol/lufa/LUFA-git/LUFA/Drivers/USB/Core/AVR8/../AVR8/Endpoint_AVR8.h **** 				return UEDATX;
 543:../tmk_core/protocol/lufa/LUFA-git/LUFA/Drivers/USB/Core/AVR8/../AVR8/Endpoint_AVR8.h **** 			}
 544:../tmk_core/protocol/lufa/LUFA-git/LUFA/Drivers/USB/Core/AVR8/../AVR8/Endpoint_AVR8.h **** 
 545:../tmk_core/protocol/lufa/LUFA-git/LUFA/Drivers/USB/Core/AVR8/../AVR8/Endpoint_AVR8.h **** 			/** Writes one byte to the currently selected endpoint's bank, for IN direction endpoints.
 546:../tmk_core/protocol/lufa/LUFA-git/LUFA/Drivers/USB/Core/AVR8/../AVR8/Endpoint_AVR8.h **** 			 *
 547:../tmk_core/protocol/lufa/LUFA-git/LUFA/Drivers/USB/Core/AVR8/../AVR8/Endpoint_AVR8.h **** 			 *  \ingroup Group_EndpointPrimitiveRW_AVR8
 548:../tmk_core/protocol/lufa/LUFA-git/LUFA/Drivers/USB/Core/AVR8/../AVR8/Endpoint_AVR8.h **** 			 *
 549:../tmk_core/protocol/lufa/LUFA-git/LUFA/Drivers/USB/Core/AVR8/../AVR8/Endpoint_AVR8.h **** 			 *  \param[in] Data  Data to write into the the currently selected endpoint's FIFO buffer.
 550:../tmk_core/protocol/lufa/LUFA-git/LUFA/Drivers/USB/Core/AVR8/../AVR8/Endpoint_AVR8.h **** 			 */
 551:../tmk_core/protocol/lufa/LUFA-git/LUFA/Drivers/USB/Core/AVR8/../AVR8/Endpoint_AVR8.h **** 			static inline void Endpoint_Write_8(const uint8_t Data) ATTR_ALWAYS_INLINE;
 552:../tmk_core/protocol/lufa/LUFA-git/LUFA/Drivers/USB/Core/AVR8/../AVR8/Endpoint_AVR8.h **** 			static inline void Endpoint_Write_8(const uint8_t Data)
 553:../tmk_core/protocol/lufa/LUFA-git/LUFA/Drivers/USB/Core/AVR8/../AVR8/Endpoint_AVR8.h **** 			{
 554:../tmk_core/protocol/lufa/LUFA-git/LUFA/Drivers/USB/Core/AVR8/../AVR8/Endpoint_AVR8.h **** 				UEDATX = Data;
 178               		.loc 2 554 0
 179 0086 8093 F100 		sts 241,r24
 180               	.LBE196:
 181               	.LBE195:
 182               	.LBB197:
 183               	.LBB198:
 360:../tmk_core/protocol/lufa/LUFA-git/LUFA/Drivers/USB/Core/AVR8/../AVR8/Endpoint_AVR8.h **** 			}
 184               		.loc 2 360 0
 185 008a 8091 E800 		lds r24,232
 186               	.LVL12:
 187               	.LBE198:
 188               	.LBE197:
 531:../tmk_core/protocol/lufa/lufa.c ****         }
 532:../tmk_core/protocol/lufa/lufa.c ****         _delay_ms(1);
 533:../tmk_core/protocol/lufa/lufa.c ****     }
 534:../tmk_core/protocol/lufa/lufa.c **** 
 535:../tmk_core/protocol/lufa/lufa.c ****     Endpoint_Write_8(c);
 536:../tmk_core/protocol/lufa/lufa.c **** 
 537:../tmk_core/protocol/lufa/lufa.c ****     // send when bank is full
 538:../tmk_core/protocol/lufa/lufa.c ****     if (!Endpoint_IsReadWriteAllowed()) {
 189               		.loc 1 538 0
 190 008e 85FD      		sbrc r24,5
 191 0090 00C0      		rjmp .L11
 192               	.L12:
 193               	.LBB199:
 194               	.LBB200:
 407:../tmk_core/protocol/lufa/LUFA-git/LUFA/Drivers/USB/Core/AVR8/../AVR8/Endpoint_AVR8.h **** 			}
 195               		.loc 2 407 0 discriminator 1
 196 0092 8091 E800 		lds r24,232
 197               	.LBE200:
 198               	.LBE199:
 539:../tmk_core/protocol/lufa/lufa.c ****         while (!(Endpoint_IsINReady()));
 199               		.loc 1 539 0 discriminator 1
 200 0096 80FF      		sbrs r24,0
 201 0098 00C0      		rjmp .L12
 202               	.LBB201:
 203               	.LBB202:
 456:../tmk_core/protocol/lufa/LUFA-git/LUFA/Drivers/USB/Core/AVR8/../AVR8/Endpoint_AVR8.h **** 				#else
 204               		.loc 2 456 0
 205 009a 8091 E800 		lds r24,232
 206 009e 8E77      		andi r24,lo8(126)
 207 00a0 8093 E800 		sts 232,r24
 208               	.LVL13:
 209 00a4 00C0      		rjmp .L13
 210               	.LVL14:
 211               	.L11:
 212               	.LBE202:
 213               	.LBE201:
 214               	.LBB203:
 540:../tmk_core/protocol/lufa/lufa.c ****         Endpoint_ClearIN();
 541:../tmk_core/protocol/lufa/lufa.c ****     } else {
 542:../tmk_core/protocol/lufa/lufa.c ****         CONSOLE_FLUSH_SET(true);
 215               		.loc 1 542 0
 216 00a6 8FB7      		in r24,__SREG__
 217               	.LVL15:
 218               	/* #APP */
 219               	 ;  542 "../tmk_core/protocol/lufa/lufa.c" 1
 220 00a8 F894      		cli
 221               	 ;  0 "" 2
 222               	/* #NOAPP */
 223 00aa 21E0      		ldi r18,lo8(1)
 224               	.LVL16:
 225 00ac 2093 0000 		sts console_flush,r18
 226               	.LVL17:
 227 00b0 8FBF      		out __SREG__,r24
 228               	.LVL18:
 229               	.L13:
 230               	.LBE203:
 231               	.LBB204:
 232               	.LBB205:
 270:../tmk_core/protocol/lufa/LUFA-git/LUFA/Drivers/USB/Core/AVR8/../AVR8/Endpoint_AVR8.h **** 				#endif
 233               		.loc 2 270 0
 234 00b2 9F70      		andi r25,lo8(15)
 235               	.LVL19:
 236 00b4 9093 E900 		sts 233,r25
 237               	.LBE205:
 238               	.LBE204:
 543:../tmk_core/protocol/lufa/lufa.c ****     }
 544:../tmk_core/protocol/lufa/lufa.c **** 
 545:../tmk_core/protocol/lufa/lufa.c ****     Endpoint_SelectEndpoint(ep);
 546:../tmk_core/protocol/lufa/lufa.c ****     return 0;
 239               		.loc 1 546 0
 240 00b8 80E0      		ldi r24,0
 241 00ba 0895      		ret
 242               	.LVL20:
 243               	.L9:
 244               	.LBB206:
 245               	.LBB207:
 270:../tmk_core/protocol/lufa/LUFA-git/LUFA/Drivers/USB/Core/AVR8/../AVR8/Endpoint_AVR8.h **** 				#endif
 246               		.loc 2 270 0
 247 00bc 9F70      		andi r25,lo8(15)
 248               	.LVL21:
 249 00be 9093 E900 		sts 233,r25
 250               	.LVL22:
 251               	.L14:
 252               	.LBE207:
 253               	.LBE206:
 506:../tmk_core/protocol/lufa/lufa.c **** 
 254               		.loc 1 506 0
 255 00c2 8FEF      		ldi r24,lo8(-1)
 547:../tmk_core/protocol/lufa/lufa.c **** ERROR_EXIT:
 548:../tmk_core/protocol/lufa/lufa.c ****     Endpoint_SelectEndpoint(ep);
 549:../tmk_core/protocol/lufa/lufa.c ****     return -1;
 550:../tmk_core/protocol/lufa/lufa.c **** }
 256               		.loc 1 550 0
 257 00c4 0895      		ret
 258               		.cfi_endproc
 259               	.LFE122:
 261               		.section	.text.send_consumer,"ax",@progbits
 263               	send_consumer:
 264               	.LFB121:
 469:../tmk_core/protocol/lufa/lufa.c ****     uint8_t timeout = 255;
 265               		.loc 1 469 0
 266               		.cfi_startproc
 267               	.LVL23:
 268 0000 CF93      		push r28
 269               	.LCFI0:
 270               		.cfi_def_cfa_offset 3
 271               		.cfi_offset 28, -2
 272 0002 DF93      		push r29
 273               	.LCFI1:
 274               		.cfi_def_cfa_offset 4
 275               		.cfi_offset 29, -3
 276 0004 00D0      		rcall .
 277 0006 1F92      		push __zero_reg__
 278               	.LCFI2:
 279               		.cfi_def_cfa_offset 7
 280 0008 CDB7      		in r28,__SP_L__
 281 000a DEB7      		in r29,__SP_H__
 282               	.LCFI3:
 283               		.cfi_def_cfa_register 28
 284               	/* prologue: function */
 285               	/* frame size = 3 */
 286               	/* stack size = 5 */
 287               	.L__stack_usage = 5
 288 000c 9C01      		movw r18,r24
 289               	.LVL24:
 472:../tmk_core/protocol/lufa/lufa.c ****         return;
 290               		.loc 1 472 0
 291 000e 8091 0000 		lds r24,USB_DeviceState
 292               	.LVL25:
 293 0012 8430      		cpi r24,lo8(4)
 294 0014 01F4      		brne .L29
 475:../tmk_core/protocol/lufa/lufa.c ****         .report_id = REPORT_ID_CONSUMER,
 295               		.loc 1 475 0
 296 0016 93E0      		ldi r25,lo8(3)
 297 0018 9983      		std Y+1,r25
 298 001a 3B83      		std Y+3,r19
 299 001c 2A83      		std Y+2,r18
 300               	.LVL26:
 301               	.LBB208:
 302               	.LBB209:
 270:../tmk_core/protocol/lufa/LUFA-git/LUFA/Drivers/USB/Core/AVR8/../AVR8/Endpoint_AVR8.h **** 				#endif
 303               		.loc 2 270 0
 304 001e 9093 E900 		sts 233,r25
 305               	.LVL27:
 306 0022 8FEF      		ldi r24,lo8(-1)
 307               	.LVL28:
 308               	.L31:
 309               	.LBE209:
 310               	.LBE208:
 311               	.LBB210:
 312               	.LBB211:
 360:../tmk_core/protocol/lufa/LUFA-git/LUFA/Drivers/USB/Core/AVR8/../AVR8/Endpoint_AVR8.h **** 			}
 313               		.loc 2 360 0
 314 0024 9091 E800 		lds r25,232
 315 0028 8150      		subi r24,lo8(-(-1))
 316               	.LVL29:
 317               	.LBE211:
 318               	.LBE210:
 482:../tmk_core/protocol/lufa/lufa.c ****     if (!Endpoint_IsReadWriteAllowed()) return;
 319               		.loc 1 482 0
 320 002a 95FD      		sbrc r25,5
 321 002c 00C0      		rjmp .L32
 322               	.LVL30:
 323               	.LBB212:
 324               	.LBB213:
 164:/usr/lib/avr/include/util/delay.h **** 
 165:/usr/lib/avr/include/util/delay.h **** #else
 166:/usr/lib/avr/include/util/delay.h **** 	uint16_t __ticks;
 167:/usr/lib/avr/include/util/delay.h **** 	__tmp = ((F_CPU) / 4e3) * __ms;
 168:/usr/lib/avr/include/util/delay.h **** 	if (__tmp < 1.0)
 169:/usr/lib/avr/include/util/delay.h **** 		__ticks = 1;
 170:/usr/lib/avr/include/util/delay.h **** 	else if (__tmp > 65535)
 171:/usr/lib/avr/include/util/delay.h **** 	{
 172:/usr/lib/avr/include/util/delay.h **** 		//	__ticks = requested delay in 1/10 ms
 173:/usr/lib/avr/include/util/delay.h **** 		__ticks = (uint16_t) (__ms * 10.0);
 174:/usr/lib/avr/include/util/delay.h **** 		while(__ticks)
 175:/usr/lib/avr/include/util/delay.h **** 		{
 176:/usr/lib/avr/include/util/delay.h **** 			// wait 1/10 ms
 177:/usr/lib/avr/include/util/delay.h **** 			_delay_loop_2(((F_CPU) / 4e3) / 10);
 178:/usr/lib/avr/include/util/delay.h **** 			__ticks --;
 179:/usr/lib/avr/include/util/delay.h **** 		}
 180:/usr/lib/avr/include/util/delay.h **** 		return;
 181:/usr/lib/avr/include/util/delay.h **** 	}
 182:/usr/lib/avr/include/util/delay.h **** 	else
 183:/usr/lib/avr/include/util/delay.h **** 		__ticks = (uint16_t)__tmp;
 184:/usr/lib/avr/include/util/delay.h **** 	_delay_loop_2(__ticks);
 185:/usr/lib/avr/include/util/delay.h **** #endif
 186:/usr/lib/avr/include/util/delay.h **** }
 187:/usr/lib/avr/include/util/delay.h **** 
 188:/usr/lib/avr/include/util/delay.h **** /**
 189:/usr/lib/avr/include/util/delay.h ****    \ingroup util_delay
 190:/usr/lib/avr/include/util/delay.h **** 
 191:/usr/lib/avr/include/util/delay.h ****    Perform a delay of \c __us microseconds, using _delay_loop_1().
 192:/usr/lib/avr/include/util/delay.h **** 
 193:/usr/lib/avr/include/util/delay.h ****    The macro F_CPU is supposed to be defined to a
 194:/usr/lib/avr/include/util/delay.h ****    constant defining the CPU clock frequency (in Hertz).
 195:/usr/lib/avr/include/util/delay.h **** 
 196:/usr/lib/avr/include/util/delay.h ****    The maximal possible delay is 768 us / F_CPU in MHz.
 197:/usr/lib/avr/include/util/delay.h **** 
 198:/usr/lib/avr/include/util/delay.h ****    If the user requests a delay greater than the maximal possible one,
 199:/usr/lib/avr/include/util/delay.h ****    _delay_us() will automatically call _delay_ms() instead.  The user
 200:/usr/lib/avr/include/util/delay.h ****    will not be informed about this case.
 201:/usr/lib/avr/include/util/delay.h **** 
 202:/usr/lib/avr/include/util/delay.h ****    If the avr-gcc toolchain has __builtin_avr_delay_cycles(unsigned long)
 203:/usr/lib/avr/include/util/delay.h ****    support, maximal possible delay is 4294967.295 us/ F_CPU in MHz. For
 204:/usr/lib/avr/include/util/delay.h ****    values greater than the maximal possible delay, overflow results in
 205:/usr/lib/avr/include/util/delay.h ****    no delay i.e., 0us.
 206:/usr/lib/avr/include/util/delay.h ****   
 207:/usr/lib/avr/include/util/delay.h ****    Conversion of __us into clock cycles may not always result in integer.
 208:/usr/lib/avr/include/util/delay.h ****    By default, the clock cycles rounded up to next integer. This ensures that
 209:/usr/lib/avr/include/util/delay.h ****    the user gets atleast __us microseconds of delay.
 210:/usr/lib/avr/include/util/delay.h **** 
 211:/usr/lib/avr/include/util/delay.h ****    Alternatively, user can define __DELAY_ROUND_DOWN__ and __DELAY_ROUND_CLOSEST__
 212:/usr/lib/avr/include/util/delay.h ****    to round down and round to closest integer.
 213:/usr/lib/avr/include/util/delay.h ****  
 214:/usr/lib/avr/include/util/delay.h ****    Note: The new implementation of _delay_us(double __us) with 
 215:/usr/lib/avr/include/util/delay.h ****     __builtin_avr_delay_cycles(unsigned long) support is not backward compatible.
 216:/usr/lib/avr/include/util/delay.h ****    User can define __DELAY_BACKWARD_COMPATIBLE__ to get a backward compatible delay.
 217:/usr/lib/avr/include/util/delay.h ****    Also, the backward compatible
 218:/usr/lib/avr/include/util/delay.h ****    algorithm will be chosen if the code is compiled in a <em>freestanding
 219:/usr/lib/avr/include/util/delay.h ****    environment</em> (GCC option \c -ffreestanding), as the math functions
 220:/usr/lib/avr/include/util/delay.h ****    required for rounding are not available to the compiler then.
 221:/usr/lib/avr/include/util/delay.h **** 
 222:/usr/lib/avr/include/util/delay.h ****  */
 223:/usr/lib/avr/include/util/delay.h **** void
 224:/usr/lib/avr/include/util/delay.h **** _delay_us(double __us)
 225:/usr/lib/avr/include/util/delay.h **** {
 226:/usr/lib/avr/include/util/delay.h **** 	double __tmp ; 
 227:/usr/lib/avr/include/util/delay.h **** #if __HAS_DELAY_CYCLES && defined(__OPTIMIZE__) && \
 228:/usr/lib/avr/include/util/delay.h ****   !defined(__DELAY_BACKWARD_COMPATIBLE__) &&	   \
 229:/usr/lib/avr/include/util/delay.h ****   __STDC_HOSTED__
 230:/usr/lib/avr/include/util/delay.h **** 	uint32_t __ticks_dc;
 231:/usr/lib/avr/include/util/delay.h **** 	extern void __builtin_avr_delay_cycles(unsigned long);
 232:/usr/lib/avr/include/util/delay.h **** 	__tmp = ((F_CPU) / 1e6) * __us;
 233:/usr/lib/avr/include/util/delay.h **** 
 234:/usr/lib/avr/include/util/delay.h **** 	#if defined(__DELAY_ROUND_DOWN__)
 235:/usr/lib/avr/include/util/delay.h **** 		__ticks_dc = (uint32_t)fabs(__tmp);
 236:/usr/lib/avr/include/util/delay.h **** 
 237:/usr/lib/avr/include/util/delay.h **** 	#elif defined(__DELAY_ROUND_CLOSEST__)
 238:/usr/lib/avr/include/util/delay.h **** 		__ticks_dc = (uint32_t)(fabs(__tmp)+0.5);
 239:/usr/lib/avr/include/util/delay.h **** 
 240:/usr/lib/avr/include/util/delay.h **** 	#else
 241:/usr/lib/avr/include/util/delay.h **** 		//round up by default
 242:/usr/lib/avr/include/util/delay.h **** 		__ticks_dc = (uint32_t)(ceil(fabs(__tmp)));
 243:/usr/lib/avr/include/util/delay.h **** 	#endif
 244:/usr/lib/avr/include/util/delay.h **** 
 245:/usr/lib/avr/include/util/delay.h **** 	__builtin_avr_delay_cycles(__ticks_dc);
 325               		.loc 3 245 0
 326 002e 95ED      		ldi r25,lo8(-43)
 327 0030 9A95      	1:	dec r25
 328 0032 01F4      		brne 1b
 329 0034 0000      		nop
 330               	.LVL31:
 331               	.LBE213:
 332               	.LBE212:
 482:../tmk_core/protocol/lufa/lufa.c ****     if (!Endpoint_IsReadWriteAllowed()) return;
 333               		.loc 1 482 0
 334 0036 8111      		cpse r24,__zero_reg__
 335 0038 00C0      		rjmp .L31
 336               	.LVL32:
 337               	.L32:
 338               	.LBB214:
 339               	.LBB215:
 360:../tmk_core/protocol/lufa/LUFA-git/LUFA/Drivers/USB/Core/AVR8/../AVR8/Endpoint_AVR8.h **** 			}
 340               		.loc 2 360 0
 341 003a 8091 E800 		lds r24,232
 342               	.LBE215:
 343               	.LBE214:
 483:../tmk_core/protocol/lufa/lufa.c **** 
 344               		.loc 1 483 0
 345 003e 85FF      		sbrs r24,5
 346 0040 00C0      		rjmp .L29
 485:../tmk_core/protocol/lufa/lufa.c ****     Endpoint_ClearIN();
 347               		.loc 1 485 0
 348 0042 40E0      		ldi r20,0
 349 0044 50E0      		ldi r21,0
 350 0046 63E0      		ldi r22,lo8(3)
 351 0048 70E0      		ldi r23,0
 352 004a CE01      		movw r24,r28
 353 004c 0196      		adiw r24,1
 354 004e 0E94 0000 		call Endpoint_Write_Stream_LE
 355               	.LVL33:
 356               	.LBB216:
 357               	.LBB217:
 456:../tmk_core/protocol/lufa/LUFA-git/LUFA/Drivers/USB/Core/AVR8/../AVR8/Endpoint_AVR8.h **** 				#else
 358               		.loc 2 456 0
 359 0052 8091 E800 		lds r24,232
 360 0056 8E77      		andi r24,lo8(126)
 361 0058 8093 E800 		sts 232,r24
 362               	.LVL34:
 363               	.L29:
 364               	/* epilogue start */
 365               	.LBE217:
 366               	.LBE216:
 487:../tmk_core/protocol/lufa/lufa.c **** 
 367               		.loc 1 487 0
 368 005c 0F90      		pop __tmp_reg__
 369 005e 0F90      		pop __tmp_reg__
 370 0060 0F90      		pop __tmp_reg__
 371 0062 DF91      		pop r29
 372 0064 CF91      		pop r28
 373 0066 0895      		ret
 374               		.cfi_endproc
 375               	.LFE121:
 377               		.section	.text.send_system,"ax",@progbits
 379               	send_system:
 380               	.LFB120:
 448:../tmk_core/protocol/lufa/lufa.c ****     uint8_t timeout = 255;
 381               		.loc 1 448 0
 382               		.cfi_startproc
 383               	.LVL35:
 384 0000 CF93      		push r28
 385               	.LCFI4:
 386               		.cfi_def_cfa_offset 3
 387               		.cfi_offset 28, -2
 388 0002 DF93      		push r29
 389               	.LCFI5:
 390               		.cfi_def_cfa_offset 4
 391               		.cfi_offset 29, -3
 392 0004 00D0      		rcall .
 393 0006 1F92      		push __zero_reg__
 394               	.LCFI6:
 395               		.cfi_def_cfa_offset 7
 396 0008 CDB7      		in r28,__SP_L__
 397 000a DEB7      		in r29,__SP_H__
 398               	.LCFI7:
 399               		.cfi_def_cfa_register 28
 400               	/* prologue: function */
 401               	/* frame size = 3 */
 402               	/* stack size = 5 */
 403               	.L__stack_usage = 5
 404               	.LVL36:
 451:../tmk_core/protocol/lufa/lufa.c ****         return;
 405               		.loc 1 451 0
 406 000c 2091 0000 		lds r18,USB_DeviceState
 407 0010 2430      		cpi r18,lo8(4)
 408 0012 01F4      		brne .L41
 454:../tmk_core/protocol/lufa/lufa.c ****         .report_id = REPORT_ID_SYSTEM,
 409               		.loc 1 454 0
 410 0014 22E0      		ldi r18,lo8(2)
 411 0016 2983      		std Y+1,r18
 412 0018 9B83      		std Y+3,r25
 413 001a 8A83      		std Y+2,r24
 414               	.LVL37:
 415               	.LBB218:
 416               	.LBB219:
 270:../tmk_core/protocol/lufa/LUFA-git/LUFA/Drivers/USB/Core/AVR8/../AVR8/Endpoint_AVR8.h **** 				#endif
 417               		.loc 2 270 0
 418 001c 83E0      		ldi r24,lo8(3)
 419               	.LVL38:
 420 001e 8093 E900 		sts 233,r24
 421               	.LVL39:
 422 0022 8FEF      		ldi r24,lo8(-1)
 423               	.LVL40:
 424               	.L43:
 425               	.LBE219:
 426               	.LBE218:
 427               	.LBB220:
 428               	.LBB221:
 360:../tmk_core/protocol/lufa/LUFA-git/LUFA/Drivers/USB/Core/AVR8/../AVR8/Endpoint_AVR8.h **** 			}
 429               		.loc 2 360 0
 430 0024 9091 E800 		lds r25,232
 431 0028 8150      		subi r24,lo8(-(-1))
 432               	.LVL41:
 433               	.LBE221:
 434               	.LBE220:
 461:../tmk_core/protocol/lufa/lufa.c ****     if (!Endpoint_IsReadWriteAllowed()) return;
 435               		.loc 1 461 0
 436 002a 95FD      		sbrc r25,5
 437 002c 00C0      		rjmp .L44
 438               	.LVL42:
 439               	.LBB222:
 440               	.LBB223:
 441               		.loc 3 245 0
 442 002e 95ED      		ldi r25,lo8(-43)
 443 0030 9A95      	1:	dec r25
 444 0032 01F4      		brne 1b
 445 0034 0000      		nop
 446               	.LVL43:
 447               	.LBE223:
 448               	.LBE222:
 461:../tmk_core/protocol/lufa/lufa.c ****     if (!Endpoint_IsReadWriteAllowed()) return;
 449               		.loc 1 461 0
 450 0036 8111      		cpse r24,__zero_reg__
 451 0038 00C0      		rjmp .L43
 452               	.LVL44:
 453               	.L44:
 454               	.LBB224:
 455               	.LBB225:
 360:../tmk_core/protocol/lufa/LUFA-git/LUFA/Drivers/USB/Core/AVR8/../AVR8/Endpoint_AVR8.h **** 			}
 456               		.loc 2 360 0
 457 003a 8091 E800 		lds r24,232
 458               	.LBE225:
 459               	.LBE224:
 462:../tmk_core/protocol/lufa/lufa.c **** 
 460               		.loc 1 462 0
 461 003e 85FF      		sbrs r24,5
 462 0040 00C0      		rjmp .L41
 464:../tmk_core/protocol/lufa/lufa.c ****     Endpoint_ClearIN();
 463               		.loc 1 464 0
 464 0042 40E0      		ldi r20,0
 465 0044 50E0      		ldi r21,0
 466 0046 63E0      		ldi r22,lo8(3)
 467 0048 70E0      		ldi r23,0
 468 004a CE01      		movw r24,r28
 469 004c 0196      		adiw r24,1
 470 004e 0E94 0000 		call Endpoint_Write_Stream_LE
 471               	.LVL45:
 472               	.LBB226:
 473               	.LBB227:
 456:../tmk_core/protocol/lufa/LUFA-git/LUFA/Drivers/USB/Core/AVR8/../AVR8/Endpoint_AVR8.h **** 				#else
 474               		.loc 2 456 0
 475 0052 8091 E800 		lds r24,232
 476 0056 8E77      		andi r24,lo8(126)
 477 0058 8093 E800 		sts 232,r24
 478               	.LVL46:
 479               	.L41:
 480               	/* epilogue start */
 481               	.LBE227:
 482               	.LBE226:
 466:../tmk_core/protocol/lufa/lufa.c **** 
 483               		.loc 1 466 0
 484 005c 0F90      		pop __tmp_reg__
 485 005e 0F90      		pop __tmp_reg__
 486 0060 0F90      		pop __tmp_reg__
 487 0062 DF91      		pop r29
 488 0064 CF91      		pop r28
 489 0066 0895      		ret
 490               		.cfi_endproc
 491               	.LFE120:
 493               		.section	.text.send_mouse,"ax",@progbits
 495               	send_mouse:
 496               	.LFB119:
 425:../tmk_core/protocol/lufa/lufa.c **** #ifdef MOUSE_ENABLE
 497               		.loc 1 425 0
 498               		.cfi_startproc
 499               	.LVL47:
 500               	/* prologue: function */
 501               	/* frame size = 0 */
 502               	/* stack size = 0 */
 503               	.L__stack_usage = 0
 429:../tmk_core/protocol/lufa/lufa.c ****         return;
 504               		.loc 1 429 0
 505 0000 2091 0000 		lds r18,USB_DeviceState
 506 0004 2430      		cpi r18,lo8(4)
 507 0006 01F4      		brne .L53
 508               	.LVL48:
 509               	.LBB228:
 510               	.LBB229:
 270:../tmk_core/protocol/lufa/LUFA-git/LUFA/Drivers/USB/Core/AVR8/../AVR8/Endpoint_AVR8.h **** 				#endif
 511               		.loc 2 270 0
 512 0008 22E0      		ldi r18,lo8(2)
 513 000a 2093 E900 		sts 233,r18
 514               	.LVL49:
 515 000e 2FEF      		ldi r18,lo8(-1)
 516               	.LVL50:
 517               	.L56:
 518               	.LBE229:
 519               	.LBE228:
 520               	.LBB230:
 521               	.LBB231:
 360:../tmk_core/protocol/lufa/LUFA-git/LUFA/Drivers/USB/Core/AVR8/../AVR8/Endpoint_AVR8.h **** 			}
 522               		.loc 2 360 0
 523 0010 3091 E800 		lds r19,232
 524 0014 2150      		subi r18,lo8(-(-1))
 525               	.LVL51:
 526               	.LBE231:
 527               	.LBE230:
 436:../tmk_core/protocol/lufa/lufa.c ****     if (!Endpoint_IsReadWriteAllowed()) return;
 528               		.loc 1 436 0
 529 0016 35FD      		sbrc r19,5
 530 0018 00C0      		rjmp .L57
 531               	.LVL52:
 532               	.LBB232:
 533               	.LBB233:
 534               		.loc 3 245 0
 535 001a 35ED      		ldi r19,lo8(-43)
 536 001c 3A95      	1:	dec r19
 537 001e 01F4      		brne 1b
 538 0020 0000      		nop
 539               	.LVL53:
 540               	.LBE233:
 541               	.LBE232:
 436:../tmk_core/protocol/lufa/lufa.c ****     if (!Endpoint_IsReadWriteAllowed()) return;
 542               		.loc 1 436 0
 543 0022 2111      		cpse r18,__zero_reg__
 544 0024 00C0      		rjmp .L56
 545               	.LVL54:
 546               	.L57:
 547               	.LBB234:
 548               	.LBB235:
 360:../tmk_core/protocol/lufa/LUFA-git/LUFA/Drivers/USB/Core/AVR8/../AVR8/Endpoint_AVR8.h **** 			}
 549               		.loc 2 360 0
 550 0026 2091 E800 		lds r18,232
 551               	.LBE235:
 552               	.LBE234:
 437:../tmk_core/protocol/lufa/lufa.c **** 
 553               		.loc 1 437 0
 554 002a 25FF      		sbrs r18,5
 555 002c 00C0      		rjmp .L53
 440:../tmk_core/protocol/lufa/lufa.c **** 
 556               		.loc 1 440 0
 557 002e 40E0      		ldi r20,0
 558 0030 50E0      		ldi r21,0
 559 0032 65E0      		ldi r22,lo8(5)
 560 0034 70E0      		ldi r23,0
 561 0036 0E94 0000 		call Endpoint_Write_Stream_LE
 562               	.LVL55:
 563               	.LBB236:
 564               	.LBB237:
 456:../tmk_core/protocol/lufa/LUFA-git/LUFA/Drivers/USB/Core/AVR8/../AVR8/Endpoint_AVR8.h **** 				#else
 565               		.loc 2 456 0
 566 003a 8091 E800 		lds r24,232
 567 003e 8E77      		andi r24,lo8(126)
 568 0040 8093 E800 		sts 232,r24
 569               	.LVL56:
 570               	.L53:
 571 0044 0895      		ret
 572               	.LBE237:
 573               	.LBE236:
 574               		.cfi_endproc
 575               	.LFE119:
 577               		.section	.text.send_keyboard,"ax",@progbits
 579               	send_keyboard:
 580               	.LFB118:
 385:../tmk_core/protocol/lufa/lufa.c ****     uint8_t timeout = 255;
 581               		.loc 1 385 0
 582               		.cfi_startproc
 583               	.LVL57:
 584 0000 CF93      		push r28
 585               	.LCFI8:
 586               		.cfi_def_cfa_offset 3
 587               		.cfi_offset 28, -2
 588 0002 DF93      		push r29
 589               	.LCFI9:
 590               		.cfi_def_cfa_offset 4
 591               		.cfi_offset 29, -3
 592               	/* prologue: function */
 593               	/* frame size = 0 */
 594               	/* stack size = 2 */
 595               	.L__stack_usage = 2
 596               	.LVL58:
 388:../tmk_core/protocol/lufa/lufa.c ****         return;
 597               		.loc 1 388 0
 598 0004 2091 0000 		lds r18,USB_DeviceState
 599 0008 2430      		cpi r18,lo8(4)
 600 000a 01F0      		breq .+2
 601 000c 00C0      		rjmp .L66
 602 000e EC01      		movw r28,r24
 393:../tmk_core/protocol/lufa/lufa.c ****         /* Report protocol - NKRO */
 603               		.loc 1 393 0
 604 0010 8091 0000 		lds r24,keyboard_protocol
 605               	.LVL59:
 606 0014 8823      		tst r24
 607 0016 01F0      		breq .L69
 393:../tmk_core/protocol/lufa/lufa.c ****         /* Report protocol - NKRO */
 608               		.loc 1 393 0 is_stmt 0 discriminator 1
 609 0018 8091 0000 		lds r24,keyboard_nkro
 610 001c 8823      		tst r24
 611 001e 01F0      		breq .L69
 612               	.LVL60:
 613               	.LBB238:
 614               	.LBB239:
 270:../tmk_core/protocol/lufa/LUFA-git/LUFA/Drivers/USB/Core/AVR8/../AVR8/Endpoint_AVR8.h **** 				#endif
 615               		.loc 2 270 0 is_stmt 1
 616 0020 85E0      		ldi r24,lo8(5)
 617 0022 8093 E900 		sts 233,r24
 618               	.LVL61:
 619 0026 8FEF      		ldi r24,lo8(-1)
 620               	.LVL62:
 621               	.L70:
 622               	.LBE239:
 623               	.LBE238:
 624               	.LBB240:
 625               	.LBB241:
 360:../tmk_core/protocol/lufa/LUFA-git/LUFA/Drivers/USB/Core/AVR8/../AVR8/Endpoint_AVR8.h **** 			}
 626               		.loc 2 360 0
 627 0028 9091 E800 		lds r25,232
 628 002c 8150      		subi r24,lo8(-(-1))
 629               	.LVL63:
 630               	.LBE241:
 631               	.LBE240:
 398:../tmk_core/protocol/lufa/lufa.c ****         if (!Endpoint_IsReadWriteAllowed()) return;
 632               		.loc 1 398 0
 633 002e 95FD      		sbrc r25,5
 634 0030 00C0      		rjmp .L71
 635               	.LVL64:
 636               	.LBB242:
 637               	.LBB243:
 638               		.loc 3 245 0
 639 0032 95E1      		ldi r25,lo8(21)
 640 0034 9A95      	1:	dec r25
 641 0036 01F4      		brne 1b
 642 0038 0000      		nop
 643               	.LVL65:
 644               	.LBE243:
 645               	.LBE242:
 398:../tmk_core/protocol/lufa/lufa.c ****         if (!Endpoint_IsReadWriteAllowed()) return;
 646               		.loc 1 398 0
 647 003a 8111      		cpse r24,__zero_reg__
 648 003c 00C0      		rjmp .L70
 649               	.LVL66:
 650               	.L71:
 651               	.LBB244:
 652               	.LBB245:
 360:../tmk_core/protocol/lufa/LUFA-git/LUFA/Drivers/USB/Core/AVR8/../AVR8/Endpoint_AVR8.h **** 			}
 653               		.loc 2 360 0
 654 003e 8091 E800 		lds r24,232
 655               	.LBE245:
 656               	.LBE244:
 399:../tmk_core/protocol/lufa/lufa.c **** 
 657               		.loc 1 399 0
 658 0042 85FF      		sbrs r24,5
 659 0044 00C0      		rjmp .L66
 402:../tmk_core/protocol/lufa/lufa.c ****     }
 660               		.loc 1 402 0
 661 0046 40E0      		ldi r20,0
 662 0048 50E0      		ldi r21,0
 663 004a 60E1      		ldi r22,lo8(16)
 664 004c 70E0      		ldi r23,0
 665 004e 00C0      		rjmp .L96
 666               	.LVL67:
 667               	.L69:
 668               	.LBB246:
 669               	.LBB247:
 270:../tmk_core/protocol/lufa/LUFA-git/LUFA/Drivers/USB/Core/AVR8/../AVR8/Endpoint_AVR8.h **** 				#endif
 670               		.loc 2 270 0
 671 0050 81E0      		ldi r24,lo8(1)
 672 0052 8093 E900 		sts 233,r24
 673               	.LVL68:
 674 0056 8FEF      		ldi r24,lo8(-1)
 675               	.LVL69:
 676               	.L75:
 677               	.LBE247:
 678               	.LBE246:
 679               	.LBB248:
 680               	.LBB249:
 360:../tmk_core/protocol/lufa/LUFA-git/LUFA/Drivers/USB/Core/AVR8/../AVR8/Endpoint_AVR8.h **** 			}
 681               		.loc 2 360 0
 682 0058 9091 E800 		lds r25,232
 683 005c 8150      		subi r24,lo8(-(-1))
 684               	.LVL70:
 685               	.LBE249:
 686               	.LBE248:
 411:../tmk_core/protocol/lufa/lufa.c ****         if (!Endpoint_IsReadWriteAllowed()) return;
 687               		.loc 1 411 0
 688 005e 95FD      		sbrc r25,5
 689 0060 00C0      		rjmp .L76
 690               	.LVL71:
 691               	.LBB250:
 692               	.LBB251:
 693               		.loc 3 245 0
 694 0062 95ED      		ldi r25,lo8(-43)
 695 0064 9A95      	1:	dec r25
 696 0066 01F4      		brne 1b
 697 0068 0000      		nop
 698               	.LVL72:
 699               	.LBE251:
 700               	.LBE250:
 411:../tmk_core/protocol/lufa/lufa.c ****         if (!Endpoint_IsReadWriteAllowed()) return;
 701               		.loc 1 411 0
 702 006a 8111      		cpse r24,__zero_reg__
 703 006c 00C0      		rjmp .L75
 704               	.LVL73:
 705               	.L76:
 706               	.LBB252:
 707               	.LBB253:
 360:../tmk_core/protocol/lufa/LUFA-git/LUFA/Drivers/USB/Core/AVR8/../AVR8/Endpoint_AVR8.h **** 			}
 708               		.loc 2 360 0
 709 006e 8091 E800 		lds r24,232
 710               	.LBE253:
 711               	.LBE252:
 412:../tmk_core/protocol/lufa/lufa.c **** 
 712               		.loc 1 412 0
 713 0072 85FF      		sbrs r24,5
 714 0074 00C0      		rjmp .L66
 415:../tmk_core/protocol/lufa/lufa.c ****     }
 715               		.loc 1 415 0
 716 0076 40E0      		ldi r20,0
 717 0078 50E0      		ldi r21,0
 718 007a 68E0      		ldi r22,lo8(8)
 719 007c 70E0      		ldi r23,0
 720               	.LVL74:
 721               	.L96:
 722 007e CE01      		movw r24,r28
 723 0080 0E94 0000 		call Endpoint_Write_Stream_LE
 724               	.LVL75:
 725               	.LBB254:
 726               	.LBB255:
 456:../tmk_core/protocol/lufa/LUFA-git/LUFA/Drivers/USB/Core/AVR8/../AVR8/Endpoint_AVR8.h **** 				#else
 727               		.loc 2 456 0
 728 0084 8091 E800 		lds r24,232
 729 0088 8E77      		andi r24,lo8(126)
 730 008a 8093 E800 		sts 232,r24
 731               	.LBE255:
 732               	.LBE254:
 421:../tmk_core/protocol/lufa/lufa.c **** }
 733               		.loc 1 421 0
 734 008e 80E1      		ldi r24,lo8(16)
 735 0090 FE01      		movw r30,r28
 736 0092 A0E0      		ldi r26,lo8(keyboard_report_sent)
 737 0094 B0E0      		ldi r27,hi8(keyboard_report_sent)
 738               		0:
 739 0096 0190      		ld r0,Z+
 740 0098 0D92      		st X+,r0
 741 009a 8A95      		dec r24
 742 009c 01F4      		brne 0b
 743               	.LVL76:
 744               	.L66:
 745               	/* epilogue start */
 422:../tmk_core/protocol/lufa/lufa.c **** 
 746               		.loc 1 422 0
 747 009e DF91      		pop r29
 748 00a0 CF91      		pop r28
 749 00a2 0895      		ret
 750               		.cfi_endproc
 751               	.LFE118:
 753               		.section	.text.EVENT_USB_Device_Connect,"ax",@progbits
 754               	.global	EVENT_USB_Device_Connect
 756               	EVENT_USB_Device_Connect:
 757               	.LFB109:
 152:../tmk_core/protocol/lufa/lufa.c ****     print("[C]");
 758               		.loc 1 152 0
 759               		.cfi_startproc
 760               	/* prologue: function */
 761               	/* frame size = 0 */
 762               	/* stack size = 0 */
 763               	.L__stack_usage = 0
 153:../tmk_core/protocol/lufa/lufa.c ****     /* For battery powered device */
 764               		.loc 1 153 0
 765 0000 80E0      		ldi r24,lo8(__c.4709)
 766 0002 90E0      		ldi r25,hi8(__c.4709)
 767 0004 0E94 0000 		call xputs
 768               	.LVL77:
 155:../tmk_core/protocol/lufa/lufa.c ****         USB_Disable();
 769               		.loc 1 155 0
 770 0008 8091 0000 		lds r24,USB_IsInitialized
 771 000c 8111      		cpse r24,__zero_reg__
 772 000e 00C0      		rjmp .L97
 156:../tmk_core/protocol/lufa/lufa.c ****         USB_Init();
 773               		.loc 1 156 0
 774 0010 0E94 0000 		call USB_Disable
 775               	.LVL78:
 157:../tmk_core/protocol/lufa/lufa.c ****         USB_Device_EnableSOFEvents();
 776               		.loc 1 157 0
 777 0014 0E94 0000 		call USB_Init
 778               	.LVL79:
 779               	.LBB256:
 780               	.LBB257:
 781               	.LBB258:
 782               		.file 4 "../tmk_core/protocol/lufa/LUFA-git/LUFA/Drivers/USB/Core/AVR8/../AVR8/USBInterrupt_AVR8.h
   1:../tmk_core/protocol/lufa/LUFA-git/LUFA/Drivers/USB/Core/AVR8/../AVR8/USBInterrupt_AVR8.h **** /*
   2:../tmk_core/protocol/lufa/LUFA-git/LUFA/Drivers/USB/Core/AVR8/../AVR8/USBInterrupt_AVR8.h ****              LUFA Library
   3:../tmk_core/protocol/lufa/LUFA-git/LUFA/Drivers/USB/Core/AVR8/../AVR8/USBInterrupt_AVR8.h ****      Copyright (C) Dean Camera, 2014.
   4:../tmk_core/protocol/lufa/LUFA-git/LUFA/Drivers/USB/Core/AVR8/../AVR8/USBInterrupt_AVR8.h **** 
   5:../tmk_core/protocol/lufa/LUFA-git/LUFA/Drivers/USB/Core/AVR8/../AVR8/USBInterrupt_AVR8.h ****   dean [at] fourwalledcubicle [dot] com
   6:../tmk_core/protocol/lufa/LUFA-git/LUFA/Drivers/USB/Core/AVR8/../AVR8/USBInterrupt_AVR8.h ****            www.lufa-lib.org
   7:../tmk_core/protocol/lufa/LUFA-git/LUFA/Drivers/USB/Core/AVR8/../AVR8/USBInterrupt_AVR8.h **** */
   8:../tmk_core/protocol/lufa/LUFA-git/LUFA/Drivers/USB/Core/AVR8/../AVR8/USBInterrupt_AVR8.h **** 
   9:../tmk_core/protocol/lufa/LUFA-git/LUFA/Drivers/USB/Core/AVR8/../AVR8/USBInterrupt_AVR8.h **** /*
  10:../tmk_core/protocol/lufa/LUFA-git/LUFA/Drivers/USB/Core/AVR8/../AVR8/USBInterrupt_AVR8.h ****   Copyright 2014  Dean Camera (dean [at] fourwalledcubicle [dot] com)
  11:../tmk_core/protocol/lufa/LUFA-git/LUFA/Drivers/USB/Core/AVR8/../AVR8/USBInterrupt_AVR8.h **** 
  12:../tmk_core/protocol/lufa/LUFA-git/LUFA/Drivers/USB/Core/AVR8/../AVR8/USBInterrupt_AVR8.h ****   Permission to use, copy, modify, distribute, and sell this
  13:../tmk_core/protocol/lufa/LUFA-git/LUFA/Drivers/USB/Core/AVR8/../AVR8/USBInterrupt_AVR8.h ****   software and its documentation for any purpose is hereby granted
  14:../tmk_core/protocol/lufa/LUFA-git/LUFA/Drivers/USB/Core/AVR8/../AVR8/USBInterrupt_AVR8.h ****   without fee, provided that the above copyright notice appear in
  15:../tmk_core/protocol/lufa/LUFA-git/LUFA/Drivers/USB/Core/AVR8/../AVR8/USBInterrupt_AVR8.h ****   all copies and that both that the copyright notice and this
  16:../tmk_core/protocol/lufa/LUFA-git/LUFA/Drivers/USB/Core/AVR8/../AVR8/USBInterrupt_AVR8.h ****   permission notice and warranty disclaimer appear in supporting
  17:../tmk_core/protocol/lufa/LUFA-git/LUFA/Drivers/USB/Core/AVR8/../AVR8/USBInterrupt_AVR8.h ****   documentation, and that the name of the author not be used in
  18:../tmk_core/protocol/lufa/LUFA-git/LUFA/Drivers/USB/Core/AVR8/../AVR8/USBInterrupt_AVR8.h ****   advertising or publicity pertaining to distribution of the
  19:../tmk_core/protocol/lufa/LUFA-git/LUFA/Drivers/USB/Core/AVR8/../AVR8/USBInterrupt_AVR8.h ****   software without specific, written prior permission.
  20:../tmk_core/protocol/lufa/LUFA-git/LUFA/Drivers/USB/Core/AVR8/../AVR8/USBInterrupt_AVR8.h **** 
  21:../tmk_core/protocol/lufa/LUFA-git/LUFA/Drivers/USB/Core/AVR8/../AVR8/USBInterrupt_AVR8.h ****   The author disclaims all warranties with regard to this
  22:../tmk_core/protocol/lufa/LUFA-git/LUFA/Drivers/USB/Core/AVR8/../AVR8/USBInterrupt_AVR8.h ****   software, including all implied warranties of merchantability
  23:../tmk_core/protocol/lufa/LUFA-git/LUFA/Drivers/USB/Core/AVR8/../AVR8/USBInterrupt_AVR8.h ****   and fitness.  In no event shall the author be liable for any
  24:../tmk_core/protocol/lufa/LUFA-git/LUFA/Drivers/USB/Core/AVR8/../AVR8/USBInterrupt_AVR8.h ****   special, indirect or consequential damages or any damages
  25:../tmk_core/protocol/lufa/LUFA-git/LUFA/Drivers/USB/Core/AVR8/../AVR8/USBInterrupt_AVR8.h ****   whatsoever resulting from loss of use, data or profits, whether
  26:../tmk_core/protocol/lufa/LUFA-git/LUFA/Drivers/USB/Core/AVR8/../AVR8/USBInterrupt_AVR8.h ****   in an action of contract, negligence or other tortious action,
  27:../tmk_core/protocol/lufa/LUFA-git/LUFA/Drivers/USB/Core/AVR8/../AVR8/USBInterrupt_AVR8.h ****   arising out of or in connection with the use or performance of
  28:../tmk_core/protocol/lufa/LUFA-git/LUFA/Drivers/USB/Core/AVR8/../AVR8/USBInterrupt_AVR8.h ****   this software.
  29:../tmk_core/protocol/lufa/LUFA-git/LUFA/Drivers/USB/Core/AVR8/../AVR8/USBInterrupt_AVR8.h **** */
  30:../tmk_core/protocol/lufa/LUFA-git/LUFA/Drivers/USB/Core/AVR8/../AVR8/USBInterrupt_AVR8.h **** 
  31:../tmk_core/protocol/lufa/LUFA-git/LUFA/Drivers/USB/Core/AVR8/../AVR8/USBInterrupt_AVR8.h **** /** \file
  32:../tmk_core/protocol/lufa/LUFA-git/LUFA/Drivers/USB/Core/AVR8/../AVR8/USBInterrupt_AVR8.h ****  *  \brief USB Controller Interrupt definitions for the AVR8 microcontrollers.
  33:../tmk_core/protocol/lufa/LUFA-git/LUFA/Drivers/USB/Core/AVR8/../AVR8/USBInterrupt_AVR8.h ****  *
  34:../tmk_core/protocol/lufa/LUFA-git/LUFA/Drivers/USB/Core/AVR8/../AVR8/USBInterrupt_AVR8.h ****  *  This file contains definitions required for the correct handling of low level USB service routi
  35:../tmk_core/protocol/lufa/LUFA-git/LUFA/Drivers/USB/Core/AVR8/../AVR8/USBInterrupt_AVR8.h ****  *  from the USB controller.
  36:../tmk_core/protocol/lufa/LUFA-git/LUFA/Drivers/USB/Core/AVR8/../AVR8/USBInterrupt_AVR8.h ****  *
  37:../tmk_core/protocol/lufa/LUFA-git/LUFA/Drivers/USB/Core/AVR8/../AVR8/USBInterrupt_AVR8.h ****  *  \note This file should not be included directly. It is automatically included as needed by the 
  38:../tmk_core/protocol/lufa/LUFA-git/LUFA/Drivers/USB/Core/AVR8/../AVR8/USBInterrupt_AVR8.h ****  *        dispatch header located in LUFA/Drivers/USB/USB.h.
  39:../tmk_core/protocol/lufa/LUFA-git/LUFA/Drivers/USB/Core/AVR8/../AVR8/USBInterrupt_AVR8.h ****  */
  40:../tmk_core/protocol/lufa/LUFA-git/LUFA/Drivers/USB/Core/AVR8/../AVR8/USBInterrupt_AVR8.h **** 
  41:../tmk_core/protocol/lufa/LUFA-git/LUFA/Drivers/USB/Core/AVR8/../AVR8/USBInterrupt_AVR8.h **** #ifndef __USBINTERRUPT_AVR8_H__
  42:../tmk_core/protocol/lufa/LUFA-git/LUFA/Drivers/USB/Core/AVR8/../AVR8/USBInterrupt_AVR8.h **** #define __USBINTERRUPT_AVR8_H__
  43:../tmk_core/protocol/lufa/LUFA-git/LUFA/Drivers/USB/Core/AVR8/../AVR8/USBInterrupt_AVR8.h **** 
  44:../tmk_core/protocol/lufa/LUFA-git/LUFA/Drivers/USB/Core/AVR8/../AVR8/USBInterrupt_AVR8.h **** 	/* Includes: */
  45:../tmk_core/protocol/lufa/LUFA-git/LUFA/Drivers/USB/Core/AVR8/../AVR8/USBInterrupt_AVR8.h **** 		#include "../../../../Common/Common.h"
  46:../tmk_core/protocol/lufa/LUFA-git/LUFA/Drivers/USB/Core/AVR8/../AVR8/USBInterrupt_AVR8.h **** 
  47:../tmk_core/protocol/lufa/LUFA-git/LUFA/Drivers/USB/Core/AVR8/../AVR8/USBInterrupt_AVR8.h **** 	/* Enable C linkage for C++ Compilers: */
  48:../tmk_core/protocol/lufa/LUFA-git/LUFA/Drivers/USB/Core/AVR8/../AVR8/USBInterrupt_AVR8.h **** 		#if defined(__cplusplus)
  49:../tmk_core/protocol/lufa/LUFA-git/LUFA/Drivers/USB/Core/AVR8/../AVR8/USBInterrupt_AVR8.h **** 			extern "C" {
  50:../tmk_core/protocol/lufa/LUFA-git/LUFA/Drivers/USB/Core/AVR8/../AVR8/USBInterrupt_AVR8.h **** 		#endif
  51:../tmk_core/protocol/lufa/LUFA-git/LUFA/Drivers/USB/Core/AVR8/../AVR8/USBInterrupt_AVR8.h **** 
  52:../tmk_core/protocol/lufa/LUFA-git/LUFA/Drivers/USB/Core/AVR8/../AVR8/USBInterrupt_AVR8.h **** 	/* Preprocessor Checks: */
  53:../tmk_core/protocol/lufa/LUFA-git/LUFA/Drivers/USB/Core/AVR8/../AVR8/USBInterrupt_AVR8.h **** 		#if !defined(__INCLUDE_FROM_USB_DRIVER)
  54:../tmk_core/protocol/lufa/LUFA-git/LUFA/Drivers/USB/Core/AVR8/../AVR8/USBInterrupt_AVR8.h **** 			#error Do not include this file directly. Include LUFA/Drivers/USB/USB.h instead.
  55:../tmk_core/protocol/lufa/LUFA-git/LUFA/Drivers/USB/Core/AVR8/../AVR8/USBInterrupt_AVR8.h **** 		#endif
  56:../tmk_core/protocol/lufa/LUFA-git/LUFA/Drivers/USB/Core/AVR8/../AVR8/USBInterrupt_AVR8.h **** 
  57:../tmk_core/protocol/lufa/LUFA-git/LUFA/Drivers/USB/Core/AVR8/../AVR8/USBInterrupt_AVR8.h **** 	/* Private Interface - For use in library only: */
  58:../tmk_core/protocol/lufa/LUFA-git/LUFA/Drivers/USB/Core/AVR8/../AVR8/USBInterrupt_AVR8.h **** 	#if !defined(__DOXYGEN__)
  59:../tmk_core/protocol/lufa/LUFA-git/LUFA/Drivers/USB/Core/AVR8/../AVR8/USBInterrupt_AVR8.h **** 		/* Enums: */
  60:../tmk_core/protocol/lufa/LUFA-git/LUFA/Drivers/USB/Core/AVR8/../AVR8/USBInterrupt_AVR8.h **** 			enum USB_Interrupts_t
  61:../tmk_core/protocol/lufa/LUFA-git/LUFA/Drivers/USB/Core/AVR8/../AVR8/USBInterrupt_AVR8.h **** 			{
  62:../tmk_core/protocol/lufa/LUFA-git/LUFA/Drivers/USB/Core/AVR8/../AVR8/USBInterrupt_AVR8.h **** 				#if (defined(USB_SERIES_4_AVR) || defined(USB_SERIES_6_AVR) || defined(USB_SERIES_7_AVR) || def
  63:../tmk_core/protocol/lufa/LUFA-git/LUFA/Drivers/USB/Core/AVR8/../AVR8/USBInterrupt_AVR8.h **** 				USB_INT_VBUSTI  = 0,
  64:../tmk_core/protocol/lufa/LUFA-git/LUFA/Drivers/USB/Core/AVR8/../AVR8/USBInterrupt_AVR8.h **** 				#endif
  65:../tmk_core/protocol/lufa/LUFA-git/LUFA/Drivers/USB/Core/AVR8/../AVR8/USBInterrupt_AVR8.h **** 				#if (defined(USB_CAN_BE_BOTH) || defined(__DOXYGEN__))
  66:../tmk_core/protocol/lufa/LUFA-git/LUFA/Drivers/USB/Core/AVR8/../AVR8/USBInterrupt_AVR8.h **** 				USB_INT_IDTI    = 1,
  67:../tmk_core/protocol/lufa/LUFA-git/LUFA/Drivers/USB/Core/AVR8/../AVR8/USBInterrupt_AVR8.h **** 				#endif
  68:../tmk_core/protocol/lufa/LUFA-git/LUFA/Drivers/USB/Core/AVR8/../AVR8/USBInterrupt_AVR8.h **** 				#if (defined(USB_CAN_BE_DEVICE) || defined(__DOXYGEN__))
  69:../tmk_core/protocol/lufa/LUFA-git/LUFA/Drivers/USB/Core/AVR8/../AVR8/USBInterrupt_AVR8.h **** 				USB_INT_WAKEUPI = 2,
  70:../tmk_core/protocol/lufa/LUFA-git/LUFA/Drivers/USB/Core/AVR8/../AVR8/USBInterrupt_AVR8.h **** 				USB_INT_SUSPI   = 3,
  71:../tmk_core/protocol/lufa/LUFA-git/LUFA/Drivers/USB/Core/AVR8/../AVR8/USBInterrupt_AVR8.h **** 				USB_INT_EORSTI  = 4,
  72:../tmk_core/protocol/lufa/LUFA-git/LUFA/Drivers/USB/Core/AVR8/../AVR8/USBInterrupt_AVR8.h **** 				USB_INT_SOFI    = 5,
  73:../tmk_core/protocol/lufa/LUFA-git/LUFA/Drivers/USB/Core/AVR8/../AVR8/USBInterrupt_AVR8.h **** 				USB_INT_RXSTPI  = 6,
  74:../tmk_core/protocol/lufa/LUFA-git/LUFA/Drivers/USB/Core/AVR8/../AVR8/USBInterrupt_AVR8.h **** 				#endif
  75:../tmk_core/protocol/lufa/LUFA-git/LUFA/Drivers/USB/Core/AVR8/../AVR8/USBInterrupt_AVR8.h **** 				#if (defined(USB_CAN_BE_HOST) || defined(__DOXYGEN__))
  76:../tmk_core/protocol/lufa/LUFA-git/LUFA/Drivers/USB/Core/AVR8/../AVR8/USBInterrupt_AVR8.h **** 				USB_INT_HSOFI   = 7,
  77:../tmk_core/protocol/lufa/LUFA-git/LUFA/Drivers/USB/Core/AVR8/../AVR8/USBInterrupt_AVR8.h **** 				USB_INT_DCONNI  = 8,
  78:../tmk_core/protocol/lufa/LUFA-git/LUFA/Drivers/USB/Core/AVR8/../AVR8/USBInterrupt_AVR8.h **** 				USB_INT_DDISCI  = 9,
  79:../tmk_core/protocol/lufa/LUFA-git/LUFA/Drivers/USB/Core/AVR8/../AVR8/USBInterrupt_AVR8.h **** 				USB_INT_RSTI    = 10,
  80:../tmk_core/protocol/lufa/LUFA-git/LUFA/Drivers/USB/Core/AVR8/../AVR8/USBInterrupt_AVR8.h **** 				USB_INT_BCERRI  = 11,
  81:../tmk_core/protocol/lufa/LUFA-git/LUFA/Drivers/USB/Core/AVR8/../AVR8/USBInterrupt_AVR8.h **** 				USB_INT_VBERRI  = 12,
  82:../tmk_core/protocol/lufa/LUFA-git/LUFA/Drivers/USB/Core/AVR8/../AVR8/USBInterrupt_AVR8.h **** 				USB_INT_SRPI    = 13,
  83:../tmk_core/protocol/lufa/LUFA-git/LUFA/Drivers/USB/Core/AVR8/../AVR8/USBInterrupt_AVR8.h **** 				#endif
  84:../tmk_core/protocol/lufa/LUFA-git/LUFA/Drivers/USB/Core/AVR8/../AVR8/USBInterrupt_AVR8.h **** 			};
  85:../tmk_core/protocol/lufa/LUFA-git/LUFA/Drivers/USB/Core/AVR8/../AVR8/USBInterrupt_AVR8.h **** 
  86:../tmk_core/protocol/lufa/LUFA-git/LUFA/Drivers/USB/Core/AVR8/../AVR8/USBInterrupt_AVR8.h **** 		/* Inline Functions: */
  87:../tmk_core/protocol/lufa/LUFA-git/LUFA/Drivers/USB/Core/AVR8/../AVR8/USBInterrupt_AVR8.h **** 			static inline void USB_INT_Enable(const uint8_t Interrupt) ATTR_ALWAYS_INLINE;
  88:../tmk_core/protocol/lufa/LUFA-git/LUFA/Drivers/USB/Core/AVR8/../AVR8/USBInterrupt_AVR8.h **** 			static inline void USB_INT_Enable(const uint8_t Interrupt)
  89:../tmk_core/protocol/lufa/LUFA-git/LUFA/Drivers/USB/Core/AVR8/../AVR8/USBInterrupt_AVR8.h **** 			{
  90:../tmk_core/protocol/lufa/LUFA-git/LUFA/Drivers/USB/Core/AVR8/../AVR8/USBInterrupt_AVR8.h **** 				switch (Interrupt)
  91:../tmk_core/protocol/lufa/LUFA-git/LUFA/Drivers/USB/Core/AVR8/../AVR8/USBInterrupt_AVR8.h **** 				{
  92:../tmk_core/protocol/lufa/LUFA-git/LUFA/Drivers/USB/Core/AVR8/../AVR8/USBInterrupt_AVR8.h **** 					#if (defined(USB_SERIES_4_AVR) || defined(USB_SERIES_6_AVR) || defined(USB_SERIES_7_AVR))
  93:../tmk_core/protocol/lufa/LUFA-git/LUFA/Drivers/USB/Core/AVR8/../AVR8/USBInterrupt_AVR8.h **** 					case USB_INT_VBUSTI:
  94:../tmk_core/protocol/lufa/LUFA-git/LUFA/Drivers/USB/Core/AVR8/../AVR8/USBInterrupt_AVR8.h **** 						USBCON |= (1 << VBUSTE);
  95:../tmk_core/protocol/lufa/LUFA-git/LUFA/Drivers/USB/Core/AVR8/../AVR8/USBInterrupt_AVR8.h **** 						break;
  96:../tmk_core/protocol/lufa/LUFA-git/LUFA/Drivers/USB/Core/AVR8/../AVR8/USBInterrupt_AVR8.h **** 					#endif
  97:../tmk_core/protocol/lufa/LUFA-git/LUFA/Drivers/USB/Core/AVR8/../AVR8/USBInterrupt_AVR8.h **** 					#if defined(USB_CAN_BE_BOTH)
  98:../tmk_core/protocol/lufa/LUFA-git/LUFA/Drivers/USB/Core/AVR8/../AVR8/USBInterrupt_AVR8.h **** 					case USB_INT_IDTI:
  99:../tmk_core/protocol/lufa/LUFA-git/LUFA/Drivers/USB/Core/AVR8/../AVR8/USBInterrupt_AVR8.h **** 						USBCON |= (1 << IDTE);
 100:../tmk_core/protocol/lufa/LUFA-git/LUFA/Drivers/USB/Core/AVR8/../AVR8/USBInterrupt_AVR8.h **** 						break;
 101:../tmk_core/protocol/lufa/LUFA-git/LUFA/Drivers/USB/Core/AVR8/../AVR8/USBInterrupt_AVR8.h **** 					#endif
 102:../tmk_core/protocol/lufa/LUFA-git/LUFA/Drivers/USB/Core/AVR8/../AVR8/USBInterrupt_AVR8.h **** 					#if defined(USB_CAN_BE_DEVICE)
 103:../tmk_core/protocol/lufa/LUFA-git/LUFA/Drivers/USB/Core/AVR8/../AVR8/USBInterrupt_AVR8.h **** 					case USB_INT_WAKEUPI:
 104:../tmk_core/protocol/lufa/LUFA-git/LUFA/Drivers/USB/Core/AVR8/../AVR8/USBInterrupt_AVR8.h **** 						UDIEN  |= (1 << WAKEUPE);
 105:../tmk_core/protocol/lufa/LUFA-git/LUFA/Drivers/USB/Core/AVR8/../AVR8/USBInterrupt_AVR8.h **** 						break;
 106:../tmk_core/protocol/lufa/LUFA-git/LUFA/Drivers/USB/Core/AVR8/../AVR8/USBInterrupt_AVR8.h **** 					case USB_INT_SUSPI:
 107:../tmk_core/protocol/lufa/LUFA-git/LUFA/Drivers/USB/Core/AVR8/../AVR8/USBInterrupt_AVR8.h **** 						UDIEN  |= (1 << SUSPE);
 108:../tmk_core/protocol/lufa/LUFA-git/LUFA/Drivers/USB/Core/AVR8/../AVR8/USBInterrupt_AVR8.h **** 						break;
 109:../tmk_core/protocol/lufa/LUFA-git/LUFA/Drivers/USB/Core/AVR8/../AVR8/USBInterrupt_AVR8.h **** 					case USB_INT_EORSTI:
 110:../tmk_core/protocol/lufa/LUFA-git/LUFA/Drivers/USB/Core/AVR8/../AVR8/USBInterrupt_AVR8.h **** 						UDIEN  |= (1 << EORSTE);
 111:../tmk_core/protocol/lufa/LUFA-git/LUFA/Drivers/USB/Core/AVR8/../AVR8/USBInterrupt_AVR8.h **** 						break;
 112:../tmk_core/protocol/lufa/LUFA-git/LUFA/Drivers/USB/Core/AVR8/../AVR8/USBInterrupt_AVR8.h **** 					case USB_INT_SOFI:
 113:../tmk_core/protocol/lufa/LUFA-git/LUFA/Drivers/USB/Core/AVR8/../AVR8/USBInterrupt_AVR8.h **** 						UDIEN  |= (1 << SOFE);
 783               		.loc 4 113 0
 784 0018 8091 E200 		lds r24,226
 785 001c 8460      		ori r24,lo8(4)
 786 001e 8093 E200 		sts 226,r24
 787               	.LVL80:
 788               	.L97:
 789 0022 0895      		ret
 790               	.LBE258:
 791               	.LBE257:
 792               	.LBE256:
 793               		.cfi_endproc
 794               	.LFE109:
 796               		.section	.text.EVENT_USB_Device_Disconnect,"ax",@progbits
 797               	.global	EVENT_USB_Device_Disconnect
 799               	EVENT_USB_Device_Disconnect:
 800               	.LFB110:
 163:../tmk_core/protocol/lufa/lufa.c ****     print("[D]");
 801               		.loc 1 163 0
 802               		.cfi_startproc
 803               	/* prologue: function */
 804               	/* frame size = 0 */
 805               	/* stack size = 0 */
 806               	.L__stack_usage = 0
 164:../tmk_core/protocol/lufa/lufa.c ****     /* For battery powered device */
 807               		.loc 1 164 0
 808 0000 80E0      		ldi r24,lo8(__c.4714)
 809 0002 90E0      		ldi r25,hi8(__c.4714)
 810 0004 0E94 0000 		call xputs
 811               	.LVL81:
 166:../tmk_core/protocol/lufa/lufa.c **** /* TODO: This doesn't work. After several plug in/outs can not be enumerated. 
 812               		.loc 1 166 0
 813 0008 1092 0000 		sts USB_IsInitialized,__zero_reg__
 814 000c 0895      		ret
 815               		.cfi_endproc
 816               	.LFE110:
 818               		.section	.text.EVENT_USB_Device_Reset,"ax",@progbits
 819               	.global	EVENT_USB_Device_Reset
 821               	EVENT_USB_Device_Reset:
 822               	.LFB111:
 177:../tmk_core/protocol/lufa/lufa.c ****     print("[R]");
 823               		.loc 1 177 0
 824               		.cfi_startproc
 825               	/* prologue: function */
 826               	/* frame size = 0 */
 827               	/* stack size = 0 */
 828               	.L__stack_usage = 0
 178:../tmk_core/protocol/lufa/lufa.c **** }
 829               		.loc 1 178 0
 830 0000 80E0      		ldi r24,lo8(__c.4719)
 831 0002 90E0      		ldi r25,hi8(__c.4719)
 832 0004 0C94 0000 		jmp xputs
 833               	.LVL82:
 834               		.cfi_endproc
 835               	.LFE111:
 837               		.section	.text.EVENT_USB_Device_StartOfFrame,"ax",@progbits
 838               	.global	EVENT_USB_Device_StartOfFrame
 840               	EVENT_USB_Device_StartOfFrame:
 841               	.LFB114:
 201:../tmk_core/protocol/lufa/lufa.c ****     static uint8_t count;
 842               		.loc 1 201 0
 843               		.cfi_startproc
 844               	/* prologue: function */
 845               	/* frame size = 0 */
 846               	/* stack size = 0 */
 847               	.L__stack_usage = 0
 203:../tmk_core/protocol/lufa/lufa.c ****     count = 0;
 848               		.loc 1 203 0
 849 0000 2091 0000 		lds r18,count.4733
 850 0004 2F5F      		subi r18,lo8(-(1))
 851 0006 822F      		mov r24,r18
 852 0008 62E3      		ldi r22,lo8(50)
 853 000a 0E94 0000 		call __udivmodqi4
 854 000e 9923      		tst r25
 855 0010 01F0      		breq .L102
 856 0012 2093 0000 		sts count.4733,r18
 857 0016 0895      		ret
 858               	.L102:
 204:../tmk_core/protocol/lufa/lufa.c **** 
 859               		.loc 1 204 0
 860 0018 1092 0000 		sts count.4733,__zero_reg__
 206:../tmk_core/protocol/lufa/lufa.c ****     Console_Task();
 861               		.loc 1 206 0
 862 001c 8091 0000 		lds r24,console_flush
 863 0020 8823      		tst r24
 864 0022 01F0      		breq .L101
 865               	.LBB283:
 866               	.LBB284:
  86:../tmk_core/protocol/lufa/lufa.c ****         return;
 867               		.loc 1 86 0
 868 0024 8091 0000 		lds r24,USB_DeviceState
 869 0028 8430      		cpi r24,lo8(4)
 870 002a 01F4      		brne .L105
 871               	.LBB285:
 872               	.LBB286:
 253:../tmk_core/protocol/lufa/LUFA-git/LUFA/Drivers/USB/Core/AVR8/../AVR8/Endpoint_AVR8.h **** 				#else
 873               		.loc 2 253 0
 874 002c 8091 E900 		lds r24,233
 875 0030 8F70      		andi r24,lo8(15)
 876               	.LBB287:
 877               	.LBB288:
 240:../tmk_core/protocol/lufa/LUFA-git/LUFA/Drivers/USB/Core/AVR8/../AVR8/Endpoint_AVR8.h **** 			}
 878               		.loc 2 240 0
 879 0032 2091 EC00 		lds r18,236
 880 0036 922F      		mov r25,r18
 881 0038 9170      		andi r25,lo8(1)
 882 003a 20FD      		sbrc r18,0
 883 003c 90E8      		ldi r25,lo8(-128)
 884               	.L106:
 885               	.LBE288:
 886               	.LBE287:
 253:../tmk_core/protocol/lufa/LUFA-git/LUFA/Drivers/USB/Core/AVR8/../AVR8/Endpoint_AVR8.h **** 				#else
 887               		.loc 2 253 0
 888 003e 892B      		or r24,r25
 889               	.LVL83:
 890               	.LBE286:
 891               	.LBE285:
 892               	.LBB289:
 893               	.LBB290:
 270:../tmk_core/protocol/lufa/LUFA-git/LUFA/Drivers/USB/Core/AVR8/../AVR8/Endpoint_AVR8.h **** 				#endif
 894               		.loc 2 270 0
 895 0040 94E0      		ldi r25,lo8(4)
 896 0042 9093 E900 		sts 233,r25
 897               	.LBE290:
 898               	.LBE289:
 899               	.LBB291:
 900               	.LBB292:
 313:../tmk_core/protocol/lufa/LUFA-git/LUFA/Drivers/USB/Core/AVR8/../AVR8/Endpoint_AVR8.h **** 			}
 901               		.loc 2 313 0
 902 0046 9091 EB00 		lds r25,235
 903               	.LBE292:
 904               	.LBE291:
 118:../tmk_core/protocol/lufa/lufa.c ****         Endpoint_SelectEndpoint(ep);
 905               		.loc 1 118 0
 906 004a 90FF      		sbrs r25,0
 907 004c 00C0      		rjmp .L110
 908               	.LBB293:
 909               	.LBB294:
 370:../tmk_core/protocol/lufa/LUFA-git/LUFA/Drivers/USB/Core/AVR8/../AVR8/Endpoint_AVR8.h **** 			}
 910               		.loc 2 370 0
 911 004e 9091 EE00 		lds r25,238
 912               	.LBE294:
 913               	.LBE293:
 118:../tmk_core/protocol/lufa/lufa.c ****         Endpoint_SelectEndpoint(ep);
 914               		.loc 1 118 0
 915 0052 97FF      		sbrs r25,7
 916 0054 00C0      		rjmp .L110
 917               	.L118:
 918               	.LBB295:
 919               	.LBB296:
 360:../tmk_core/protocol/lufa/LUFA-git/LUFA/Drivers/USB/Core/AVR8/../AVR8/Endpoint_AVR8.h **** 			}
 920               		.loc 2 360 0
 921 0056 9091 E800 		lds r25,232
 922               	.LBE296:
 923               	.LBE295:
 124:../tmk_core/protocol/lufa/lufa.c ****         Endpoint_Write_8(0);
 924               		.loc 1 124 0
 925 005a 95FF      		sbrs r25,5
 926 005c 00C0      		rjmp .L122
 927               	.LVL84:
 928               	.LBB297:
 929               	.LBB298:
 930               		.loc 2 554 0
 931 005e 1092 F100 		sts 241,__zero_reg__
 932 0062 00C0      		rjmp .L118
 933               	.LVL85:
 934               	.L122:
 935               	.LBE298:
 936               	.LBE297:
 937               	.LBB299:
 938               	.LBB300:
 407:../tmk_core/protocol/lufa/LUFA-git/LUFA/Drivers/USB/Core/AVR8/../AVR8/Endpoint_AVR8.h **** 			}
 939               		.loc 2 407 0
 940 0064 9091 E800 		lds r25,232
 941               	.LBE300:
 942               	.LBE299:
 128:../tmk_core/protocol/lufa/lufa.c ****         Endpoint_ClearIN();
 943               		.loc 1 128 0
 944 0068 90FF      		sbrs r25,0
 945 006a 00C0      		rjmp .L110
 946               	.LBB301:
 947               	.LBB302:
 456:../tmk_core/protocol/lufa/LUFA-git/LUFA/Drivers/USB/Core/AVR8/../AVR8/Endpoint_AVR8.h **** 				#else
 948               		.loc 2 456 0
 949 006c 9091 E800 		lds r25,232
 950 0070 9E77      		andi r25,lo8(126)
 951 0072 9093 E800 		sts 232,r25
 952               	.L110:
 953               	.LVL86:
 954               	.LBE302:
 955               	.LBE301:
 956               	.LBB303:
 957               	.LBB304:
 270:../tmk_core/protocol/lufa/LUFA-git/LUFA/Drivers/USB/Core/AVR8/../AVR8/Endpoint_AVR8.h **** 				#endif
 958               		.loc 2 270 0
 959 0076 8F70      		andi r24,lo8(15)
 960               	.LVL87:
 961 0078 8093 E900 		sts 233,r24
 962               	.LVL88:
 963               	.L105:
 964               	.LBE304:
 965               	.LBE303:
 966               	.LBE284:
 967               	.LBE283:
 208:../tmk_core/protocol/lufa/lufa.c **** }
 968               		.loc 1 208 0
 969 007c 1092 0000 		sts console_flush,__zero_reg__
 970               	.L101:
 971 0080 0895      		ret
 972               		.cfi_endproc
 973               	.LFE114:
 975               		.section	.text.EVENT_USB_Device_ConfigurationChanged,"ax",@progbits
 976               	.global	EVENT_USB_Device_ConfigurationChanged
 978               	EVENT_USB_Device_ConfigurationChanged:
 979               	.LFB115:
 219:../tmk_core/protocol/lufa/lufa.c ****     bool ConfigSuccess = true;
 980               		.loc 1 219 0
 981               		.cfi_startproc
 982               	/* prologue: function */
 983               	/* frame size = 0 */
 984               	/* stack size = 0 */
 985               	.L__stack_usage = 0
 986               	.LVL89:
 987               	.LBB305:
 988               	.LBB306:
 210:../tmk_core/protocol/lufa/LUFA-git/LUFA/Drivers/USB/Core/AVR8/../AVR8/Endpoint_AVR8.h **** 				                                      ((Type << EPTYPE0) | ((Address & ENDPOINT_DIR_IN) ? (1 <<
 989               		.loc 2 210 0
 990 0000 42E0      		ldi r20,lo8(2)
 991 0002 61EC      		ldi r22,lo8(-63)
 992 0004 81E0      		ldi r24,lo8(1)
 993 0006 0E94 0000 		call Endpoint_ConfigureEndpoint_Prv
 994               	.LVL90:
 995               	.LBE306:
 996               	.LBE305:
 997               	.LBB307:
 998               	.LBB308:
 999 000a 42E0      		ldi r20,lo8(2)
 1000 000c 61EC      		ldi r22,lo8(-63)
 1001 000e 82E0      		ldi r24,lo8(2)
 1002 0010 0E94 0000 		call Endpoint_ConfigureEndpoint_Prv
 1003               	.LVL91:
 1004               	.LBE308:
 1005               	.LBE307:
 1006               	.LBB309:
 1007               	.LBB310:
 1008 0014 42E0      		ldi r20,lo8(2)
 1009 0016 61EC      		ldi r22,lo8(-63)
 1010 0018 83E0      		ldi r24,lo8(3)
 1011 001a 0E94 0000 		call Endpoint_ConfigureEndpoint_Prv
 1012               	.LVL92:
 1013               	.LBE310:
 1014               	.LBE309:
 1015               	.LBB311:
 1016               	.LBB312:
 1017 001e 42E2      		ldi r20,lo8(34)
 1018 0020 61EC      		ldi r22,lo8(-63)
 1019 0022 84E0      		ldi r24,lo8(4)
 1020 0024 0E94 0000 		call Endpoint_ConfigureEndpoint_Prv
 1021               	.LVL93:
 1022               	.LBE312:
 1023               	.LBE311:
 1024               	.LBB313:
 1025               	.LBB314:
 1026 0028 42E1      		ldi r20,lo8(18)
 1027 002a 61EC      		ldi r22,lo8(-63)
 1028 002c 85E0      		ldi r24,lo8(5)
 1029 002e 0C94 0000 		jmp Endpoint_ConfigureEndpoint_Prv
 1030               	.LVL94:
 1031               	.LBE314:
 1032               	.LBE313:
 1033               		.cfi_endproc
 1034               	.LFE115:
 1036               		.section	.text.EVENT_USB_Device_ControlRequest,"ax",@progbits
 1037               	.global	EVENT_USB_Device_ControlRequest
 1039               	EVENT_USB_Device_ControlRequest:
 1040               	.LFB116:
 272:../tmk_core/protocol/lufa/lufa.c ****     uint8_t* ReportData = NULL;
 1041               		.loc 1 272 0
 1042               		.cfi_startproc
 1043               	/* prologue: function */
 1044               	/* frame size = 0 */
 1045               	/* stack size = 0 */
 1046               	.L__stack_usage = 0
 1047               	.LVL95:
 277:../tmk_core/protocol/lufa/lufa.c ****     {
 1048               		.loc 1 277 0
 1049 0000 8091 0000 		lds r24,USB_ControlRequest+1
 1050 0004 8330      		cpi r24,lo8(3)
 1051 0006 01F4      		brne .+2
 1052 0008 00C0      		rjmp .L126
 1053 000a 00F4      		brsh .L127
 1054 000c 8130      		cpi r24,lo8(1)
 1055 000e 01F0      		breq .L128
 1056 0010 8230      		cpi r24,lo8(2)
 1057 0012 01F4      		brne .+2
 1058 0014 00C0      		rjmp .L129
 1059 0016 0895      		ret
 1060               	.L127:
 1061 0018 8A30      		cpi r24,lo8(10)
 1062 001a 01F4      		brne .+2
 1063 001c 00C0      		rjmp .L130
 1064 001e 8B30      		cpi r24,lo8(11)
 1065 0020 01F4      		brne .+2
 1066 0022 00C0      		rjmp .L131
 1067 0024 8930      		cpi r24,lo8(9)
 1068 0026 01F0      		breq .+2
 1069 0028 00C0      		rjmp .L124
 1070 002a 00C0      		rjmp .L159
 1071               	.L128:
 280:../tmk_core/protocol/lufa/lufa.c ****             {
 1072               		.loc 1 280 0
 1073 002c 8091 0000 		lds r24,USB_ControlRequest
 1074 0030 813A      		cpi r24,lo8(-95)
 1075 0032 01F0      		breq .+2
 1076 0034 00C0      		rjmp .L124
 1077               	.LBB315:
 1078               	.LBB316:
 444:../tmk_core/protocol/lufa/LUFA-git/LUFA/Drivers/USB/Core/AVR8/../AVR8/Endpoint_AVR8.h **** 			}
 1079               		.loc 2 444 0
 1080 0036 8091 E800 		lds r24,232
 1081 003a 877F      		andi r24,lo8(-9)
 1082 003c 8093 E800 		sts 232,r24
 1083               	.LBE316:
 1084               	.LBE315:
 285:../tmk_core/protocol/lufa/lufa.c ****                 case KEYBOARD_INTERFACE:
 1085               		.loc 1 285 0
 1086 0040 8091 0000 		lds r24,USB_ControlRequest+4
 1087 0044 9091 0000 		lds r25,USB_ControlRequest+4+1
 1088 0048 892B      		or r24,r25
 1089 004a 01F4      		brne .L156
 289:../tmk_core/protocol/lufa/lufa.c ****                     break;
 1090               		.loc 1 289 0
 1091 004c 60E1      		ldi r22,lo8(16)
 288:../tmk_core/protocol/lufa/lufa.c ****                     ReportSize = sizeof(keyboard_report_sent);
 1092               		.loc 1 288 0
 1093 004e 80E0      		ldi r24,lo8(keyboard_report_sent)
 1094 0050 90E0      		ldi r25,hi8(keyboard_report_sent)
 1095 0052 00C0      		rjmp .L134
 1096               	.L156:
 274:../tmk_core/protocol/lufa/lufa.c **** 
 1097               		.loc 1 274 0
 1098 0054 60E0      		ldi r22,0
 273:../tmk_core/protocol/lufa/lufa.c ****     uint8_t  ReportSize = 0;
 1099               		.loc 1 273 0
 1100 0056 80E0      		ldi r24,0
 1101 0058 90E0      		ldi r25,0
 1102               	.L134:
 1103               	.LVL96:
 294:../tmk_core/protocol/lufa/lufa.c ****                 Endpoint_ClearOUT();
 1104               		.loc 1 294 0
 1105 005a 70E0      		ldi r23,0
 1106 005c 0E94 0000 		call Endpoint_Write_Control_Stream_LE
 1107               	.LVL97:
 1108               	.LBB317:
 1109               	.LBB318:
 471:../tmk_core/protocol/lufa/LUFA-git/LUFA/Drivers/USB/Core/AVR8/../AVR8/Endpoint_AVR8.h **** 				#else
 1110               		.loc 2 471 0
 1111 0060 8091 E800 		lds r24,232
 1112 0064 8B77      		andi r24,lo8(123)
 1113 0066 8093 E800 		sts 232,r24
 1114 006a 0895      		ret
 1115               	.LVL98:
 1116               	.L159:
 1117               	.LBE318:
 1118               	.LBE317:
 300:../tmk_core/protocol/lufa/lufa.c ****             {
 1119               		.loc 1 300 0
 1120 006c 8091 0000 		lds r24,USB_ControlRequest
 1121 0070 8132      		cpi r24,lo8(33)
 1122 0072 01F0      		breq .+2
 1123 0074 00C0      		rjmp .L124
 304:../tmk_core/protocol/lufa/lufa.c ****                 case KEYBOARD_INTERFACE:
 1124               		.loc 1 304 0
 1125 0076 8091 0000 		lds r24,USB_ControlRequest+4
 1126 007a 9091 0000 		lds r25,USB_ControlRequest+4+1
 1127 007e 0097      		sbiw r24,0
 1128 0080 01F0      		breq .L137
 1129 0082 0497      		sbiw r24,4
 1130 0084 01F0      		breq .+2
 1131 0086 00C0      		rjmp .L124
 1132               	.L137:
 1133               	.LBB319:
 1134               	.LBB320:
 444:../tmk_core/protocol/lufa/LUFA-git/LUFA/Drivers/USB/Core/AVR8/../AVR8/Endpoint_AVR8.h **** 			}
 1135               		.loc 2 444 0
 1136 0088 8091 E800 		lds r24,232
 1137 008c 877F      		andi r24,lo8(-9)
 1138 008e 8093 E800 		sts 232,r24
 1139               	.L138:
 1140               	.LBE320:
 1141               	.LBE319:
 1142               	.LBB321:
 1143               	.LBB322:
 419:../tmk_core/protocol/lufa/LUFA-git/LUFA/Drivers/USB/Core/AVR8/../AVR8/Endpoint_AVR8.h **** 			}
 1144               		.loc 2 419 0
 1145 0092 8091 E800 		lds r24,232
 1146               	.LBE322:
 1147               	.LBE321:
 311:../tmk_core/protocol/lufa/lufa.c ****                         if (USB_DeviceState == DEVICE_STATE_Unattached)
 1148               		.loc 1 311 0
 1149 0096 82FD      		sbrc r24,2
 1150 0098 00C0      		rjmp .L160
 312:../tmk_core/protocol/lufa/lufa.c ****                           return;
 1151               		.loc 1 312 0
 1152 009a 8091 0000 		lds r24,USB_DeviceState
 1153 009e 8111      		cpse r24,__zero_reg__
 1154 00a0 00C0      		rjmp .L138
 1155 00a2 00C0      		rjmp .L124
 1156               	.L160:
 1157               	.LBB323:
 1158               	.LBB324:
 542:../tmk_core/protocol/lufa/LUFA-git/LUFA/Drivers/USB/Core/AVR8/../AVR8/Endpoint_AVR8.h **** 			}
 1159               		.loc 2 542 0
 1160 00a4 8091 F100 		lds r24,241
 1161               	.LBE324:
 1162               	.LBE323:
 315:../tmk_core/protocol/lufa/lufa.c **** 
 1163               		.loc 1 315 0
 1164 00a8 8093 0000 		sts keyboard_led_stats,r24
 1165               	.LBB325:
 1166               	.LBB326:
 471:../tmk_core/protocol/lufa/LUFA-git/LUFA/Drivers/USB/Core/AVR8/../AVR8/Endpoint_AVR8.h **** 				#else
 1167               		.loc 2 471 0
 1168 00ac 8091 E800 		lds r24,232
 1169 00b0 8B77      		andi r24,lo8(123)
 1170 00b2 00C0      		rjmp .L157
 1171               	.L126:
 1172               	.LBE326:
 1173               	.LBE325:
 327:../tmk_core/protocol/lufa/lufa.c ****             {
 1174               		.loc 1 327 0
 1175 00b4 8091 0000 		lds r24,USB_ControlRequest
 1176 00b8 813A      		cpi r24,lo8(-95)
 1177 00ba 01F0      		breq .+2
 1178 00bc 00C0      		rjmp .L124
 329:../tmk_core/protocol/lufa/lufa.c ****                     Endpoint_ClearSETUP();
 1179               		.loc 1 329 0
 1180 00be 8091 0000 		lds r24,USB_ControlRequest+4
 1181 00c2 9091 0000 		lds r25,USB_ControlRequest+4+1
 1182 00c6 892B      		or r24,r25
 1183 00c8 01F0      		breq .+2
 1184 00ca 00C0      		rjmp .L124
 1185               	.LBB327:
 1186               	.LBB328:
 444:../tmk_core/protocol/lufa/LUFA-git/LUFA/Drivers/USB/Core/AVR8/../AVR8/Endpoint_AVR8.h **** 			}
 1187               		.loc 2 444 0
 1188 00cc 8091 E800 		lds r24,232
 1189 00d0 877F      		andi r24,lo8(-9)
 1190 00d2 8093 E800 		sts 232,r24
 1191               	.L140:
 1192               	.LBE328:
 1193               	.LBE327:
 1194               	.LBB329:
 1195               	.LBB330:
 407:../tmk_core/protocol/lufa/LUFA-git/LUFA/Drivers/USB/Core/AVR8/../AVR8/Endpoint_AVR8.h **** 			}
 1196               		.loc 2 407 0 discriminator 1
 1197 00d6 8091 E800 		lds r24,232
 1198               	.LBE330:
 1199               	.LBE329:
 331:../tmk_core/protocol/lufa/lufa.c ****                     Endpoint_Write_8(keyboard_protocol);
 1200               		.loc 1 331 0 discriminator 1
 1201 00da 80FF      		sbrs r24,0
 1202 00dc 00C0      		rjmp .L140
 332:../tmk_core/protocol/lufa/lufa.c ****                     Endpoint_ClearIN();
 1203               		.loc 1 332 0
 1204 00de 8091 0000 		lds r24,keyboard_protocol
 1205               	.LVL99:
 1206 00e2 00C0      		rjmp .L158
 1207               	.LVL100:
 1208               	.L131:
 340:../tmk_core/protocol/lufa/lufa.c ****             {
 1209               		.loc 1 340 0
 1210 00e4 8091 0000 		lds r24,USB_ControlRequest
 1211 00e8 8132      		cpi r24,lo8(33)
 1212 00ea 01F4      		brne .L124
 342:../tmk_core/protocol/lufa/lufa.c ****                     Endpoint_ClearSETUP();
 1213               		.loc 1 342 0
 1214 00ec 8091 0000 		lds r24,USB_ControlRequest+4
 1215 00f0 9091 0000 		lds r25,USB_ControlRequest+4+1
 1216 00f4 892B      		or r24,r25
 1217 00f6 01F4      		brne .L124
 1218               	.LBB331:
 1219               	.LBB332:
 444:../tmk_core/protocol/lufa/LUFA-git/LUFA/Drivers/USB/Core/AVR8/../AVR8/Endpoint_AVR8.h **** 			}
 1220               		.loc 2 444 0
 1221 00f8 8091 E800 		lds r24,232
 1222 00fc 877F      		andi r24,lo8(-9)
 1223 00fe 8093 E800 		sts 232,r24
 1224               	.LBE332:
 1225               	.LBE331:
 344:../tmk_core/protocol/lufa/lufa.c **** 
 1226               		.loc 1 344 0
 1227 0102 0E94 0000 		call Endpoint_ClearStatusStage
 1228               	.LVL101:
 346:../tmk_core/protocol/lufa/lufa.c ****                     clear_keyboard();
 1229               		.loc 1 346 0
 1230 0106 8091 0000 		lds r24,USB_ControlRequest+2
 1231 010a 8093 0000 		sts keyboard_protocol,r24
 347:../tmk_core/protocol/lufa/lufa.c ****                 }
 1232               		.loc 1 347 0
 1233 010e 0C94 0000 		jmp clear_keyboard
 1234               	.LVL102:
 1235               	.L130:
 353:../tmk_core/protocol/lufa/lufa.c ****             {
 1236               		.loc 1 353 0
 1237 0112 8091 0000 		lds r24,USB_ControlRequest
 1238 0116 8132      		cpi r24,lo8(33)
 1239 0118 01F4      		brne .L124
 1240               	.LBB333:
 1241               	.LBB334:
 444:../tmk_core/protocol/lufa/LUFA-git/LUFA/Drivers/USB/Core/AVR8/../AVR8/Endpoint_AVR8.h **** 			}
 1242               		.loc 2 444 0
 1243 011a 8091 E800 		lds r24,232
 1244 011e 877F      		andi r24,lo8(-9)
 1245 0120 8093 E800 		sts 232,r24
 1246               	.LBE334:
 1247               	.LBE333:
 356:../tmk_core/protocol/lufa/lufa.c **** 
 1248               		.loc 1 356 0
 1249 0124 0E94 0000 		call Endpoint_ClearStatusStage
 1250               	.LVL103:
 358:../tmk_core/protocol/lufa/lufa.c ****             }
 1251               		.loc 1 358 0
 1252 0128 8091 0000 		lds r24,USB_ControlRequest+3
 1253 012c 8093 0000 		sts keyboard_idle,r24
 1254 0130 0895      		ret
 1255               	.L129:
 363:../tmk_core/protocol/lufa/lufa.c ****             {
 1256               		.loc 1 363 0
 1257 0132 8091 0000 		lds r24,USB_ControlRequest
 1258 0136 813A      		cpi r24,lo8(-95)
 1259 0138 01F4      		brne .L124
 1260               	.LBB335:
 1261               	.LBB336:
 444:../tmk_core/protocol/lufa/LUFA-git/LUFA/Drivers/USB/Core/AVR8/../AVR8/Endpoint_AVR8.h **** 			}
 1262               		.loc 2 444 0
 1263 013a 8091 E800 		lds r24,232
 1264 013e 877F      		andi r24,lo8(-9)
 1265 0140 8093 E800 		sts 232,r24
 1266               	.L141:
 1267               	.LBE336:
 1268               	.LBE335:
 1269               	.LBB337:
 1270               	.LBB338:
 407:../tmk_core/protocol/lufa/LUFA-git/LUFA/Drivers/USB/Core/AVR8/../AVR8/Endpoint_AVR8.h **** 			}
 1271               		.loc 2 407 0 discriminator 1
 1272 0144 8091 E800 		lds r24,232
 1273               	.LBE338:
 1274               	.LBE337:
 366:../tmk_core/protocol/lufa/lufa.c ****                 Endpoint_Write_8(keyboard_idle);
 1275               		.loc 1 366 0 discriminator 1
 1276 0148 80FF      		sbrs r24,0
 1277 014a 00C0      		rjmp .L141
 367:../tmk_core/protocol/lufa/lufa.c ****                 Endpoint_ClearIN();
 1278               		.loc 1 367 0
 1279 014c 8091 0000 		lds r24,keyboard_idle
 1280               	.L158:
 1281               	.LVL104:
 1282               	.LBB339:
 1283               	.LBB340:
 1284               		.loc 2 554 0
 1285 0150 8093 F100 		sts 241,r24
 1286               	.LBE340:
 1287               	.LBE339:
 1288               	.LBB341:
 1289               	.LBB342:
 456:../tmk_core/protocol/lufa/LUFA-git/LUFA/Drivers/USB/Core/AVR8/../AVR8/Endpoint_AVR8.h **** 				#else
 1290               		.loc 2 456 0
 1291 0154 8091 E800 		lds r24,232
 1292               	.LVL105:
 1293 0158 8E77      		andi r24,lo8(126)
 1294               	.LVL106:
 1295               	.L157:
 1296 015a 8093 E800 		sts 232,r24
 1297               	.LBE342:
 1298               	.LBE341:
 369:../tmk_core/protocol/lufa/lufa.c ****             }
 1299               		.loc 1 369 0
 1300 015e 0C94 0000 		jmp Endpoint_ClearStatusStage
 1301               	.LVL107:
 1302               	.L124:
 1303 0162 0895      		ret
 1304               		.cfi_endproc
 1305               	.LFE116:
 1307               		.section	.text.hook_early_init,"ax",@progbits
 1308               		.weak	hook_early_init
 1310               	hook_early_init:
 1311               	.LFB126:
 551:../tmk_core/protocol/lufa/lufa.c **** #else
 552:../tmk_core/protocol/lufa/lufa.c **** int8_t sendchar(uint8_t c)
 553:../tmk_core/protocol/lufa/lufa.c **** {
 554:../tmk_core/protocol/lufa/lufa.c ****     return 0;
 555:../tmk_core/protocol/lufa/lufa.c **** }
 556:../tmk_core/protocol/lufa/lufa.c **** #endif
 557:../tmk_core/protocol/lufa/lufa.c **** 
 558:../tmk_core/protocol/lufa/lufa.c **** 
 559:../tmk_core/protocol/lufa/lufa.c **** /*******************************************************************************
 560:../tmk_core/protocol/lufa/lufa.c ****  * main
 561:../tmk_core/protocol/lufa/lufa.c ****  ******************************************************************************/
 562:../tmk_core/protocol/lufa/lufa.c **** static void setup_mcu(void)
 563:../tmk_core/protocol/lufa/lufa.c **** {
 564:../tmk_core/protocol/lufa/lufa.c ****     /* Disable watchdog if enabled by bootloader/fuses */
 565:../tmk_core/protocol/lufa/lufa.c ****     MCUSR &= ~(1 << WDRF);
 566:../tmk_core/protocol/lufa/lufa.c ****     wdt_disable();
 567:../tmk_core/protocol/lufa/lufa.c **** 
 568:../tmk_core/protocol/lufa/lufa.c ****     /* Disable clock division */
 569:../tmk_core/protocol/lufa/lufa.c ****     clock_prescale_set(clock_div_1);
 570:../tmk_core/protocol/lufa/lufa.c **** }
 571:../tmk_core/protocol/lufa/lufa.c **** 
 572:../tmk_core/protocol/lufa/lufa.c **** static void setup_usb(void)
 573:../tmk_core/protocol/lufa/lufa.c **** {
 574:../tmk_core/protocol/lufa/lufa.c ****     // Leonardo needs. Without this USB device is not recognized.
 575:../tmk_core/protocol/lufa/lufa.c ****     USB_Disable();
 576:../tmk_core/protocol/lufa/lufa.c **** 
 577:../tmk_core/protocol/lufa/lufa.c ****     USB_Init();
 578:../tmk_core/protocol/lufa/lufa.c **** 
 579:../tmk_core/protocol/lufa/lufa.c ****     // for Console_Task
 580:../tmk_core/protocol/lufa/lufa.c ****     USB_Device_EnableSOFEvents();
 581:../tmk_core/protocol/lufa/lufa.c ****     print_set_sendchar(sendchar);
 582:../tmk_core/protocol/lufa/lufa.c **** }
 583:../tmk_core/protocol/lufa/lufa.c **** 
 584:../tmk_core/protocol/lufa/lufa.c **** int main(void)  __attribute__ ((weak));
 585:../tmk_core/protocol/lufa/lufa.c **** int main(void)
 586:../tmk_core/protocol/lufa/lufa.c **** {
 587:../tmk_core/protocol/lufa/lufa.c ****     setup_mcu();
 588:../tmk_core/protocol/lufa/lufa.c ****     hook_early_init();
 589:../tmk_core/protocol/lufa/lufa.c ****     keyboard_setup();
 590:../tmk_core/protocol/lufa/lufa.c ****     setup_usb();
 591:../tmk_core/protocol/lufa/lufa.c ****     sei();
 592:../tmk_core/protocol/lufa/lufa.c **** 
 593:../tmk_core/protocol/lufa/lufa.c ****     /* wait for USB startup & debug output */
 594:../tmk_core/protocol/lufa/lufa.c ****     while (USB_DeviceState != DEVICE_STATE_Configured) {
 595:../tmk_core/protocol/lufa/lufa.c **** #if defined(INTERRUPT_CONTROL_ENDPOINT)
 596:../tmk_core/protocol/lufa/lufa.c ****         ;
 597:../tmk_core/protocol/lufa/lufa.c **** #else
 598:../tmk_core/protocol/lufa/lufa.c ****         USB_USBTask();
 599:../tmk_core/protocol/lufa/lufa.c **** #endif
 600:../tmk_core/protocol/lufa/lufa.c ****     }
 601:../tmk_core/protocol/lufa/lufa.c ****     print("USB configured.\n");
 602:../tmk_core/protocol/lufa/lufa.c **** 
 603:../tmk_core/protocol/lufa/lufa.c ****     /* init modules */
 604:../tmk_core/protocol/lufa/lufa.c ****     keyboard_init();
 605:../tmk_core/protocol/lufa/lufa.c ****     host_set_driver(&lufa_driver);
 606:../tmk_core/protocol/lufa/lufa.c **** #ifdef SLEEP_LED_ENABLE
 607:../tmk_core/protocol/lufa/lufa.c ****     sleep_led_init();
 608:../tmk_core/protocol/lufa/lufa.c **** #endif
 609:../tmk_core/protocol/lufa/lufa.c **** 
 610:../tmk_core/protocol/lufa/lufa.c ****     print("Keyboard start.\n");
 611:../tmk_core/protocol/lufa/lufa.c ****     hook_late_init();
 612:../tmk_core/protocol/lufa/lufa.c ****     while (1) {
 613:../tmk_core/protocol/lufa/lufa.c ****         while (USB_DeviceState == DEVICE_STATE_Suspended) {
 614:../tmk_core/protocol/lufa/lufa.c ****             print("[s]");
 615:../tmk_core/protocol/lufa/lufa.c ****             hook_usb_suspend_loop();
 616:../tmk_core/protocol/lufa/lufa.c ****         }
 617:../tmk_core/protocol/lufa/lufa.c **** 
 618:../tmk_core/protocol/lufa/lufa.c ****         keyboard_task();
 619:../tmk_core/protocol/lufa/lufa.c **** 
 620:../tmk_core/protocol/lufa/lufa.c **** #if !defined(INTERRUPT_CONTROL_ENDPOINT)
 621:../tmk_core/protocol/lufa/lufa.c ****         USB_USBTask();
 622:../tmk_core/protocol/lufa/lufa.c **** #endif
 623:../tmk_core/protocol/lufa/lufa.c ****     }
 624:../tmk_core/protocol/lufa/lufa.c **** }
 625:../tmk_core/protocol/lufa/lufa.c **** 
 626:../tmk_core/protocol/lufa/lufa.c **** 
 627:../tmk_core/protocol/lufa/lufa.c **** /* hooks */
 628:../tmk_core/protocol/lufa/lufa.c **** __attribute__((weak))
 629:../tmk_core/protocol/lufa/lufa.c **** void hook_early_init(void) {}
 1312               		.loc 1 629 0
 1313               		.cfi_startproc
 1314               	/* prologue: function */
 1315               	/* frame size = 0 */
 1316               	/* stack size = 0 */
 1317               	.L__stack_usage = 0
 1318 0000 0895      		ret
 1319               		.cfi_endproc
 1320               	.LFE126:
 1322               		.section	.text.hook_late_init,"ax",@progbits
 1323               		.weak	hook_late_init
 1325               	hook_late_init:
 1326               	.LFB127:
 630:../tmk_core/protocol/lufa/lufa.c **** 
 631:../tmk_core/protocol/lufa/lufa.c **** __attribute__((weak))
 632:../tmk_core/protocol/lufa/lufa.c **** void hook_late_init(void) {}
 1327               		.loc 1 632 0
 1328               		.cfi_startproc
 1329               	/* prologue: function */
 1330               	/* frame size = 0 */
 1331               	/* stack size = 0 */
 1332               	.L__stack_usage = 0
 1333 0000 0895      		ret
 1334               		.cfi_endproc
 1335               	.LFE127:
 1337               		.section	.text.hook_usb_suspend_entry,"ax",@progbits
 1338               		.weak	hook_usb_suspend_entry
 1340               	hook_usb_suspend_entry:
 1341               	.LFB128:
 633:../tmk_core/protocol/lufa/lufa.c **** 
 634:../tmk_core/protocol/lufa/lufa.c ****  __attribute__((weak))
 635:../tmk_core/protocol/lufa/lufa.c **** void hook_usb_suspend_entry(void)
 636:../tmk_core/protocol/lufa/lufa.c **** {
 1342               		.loc 1 636 0
 1343               		.cfi_startproc
 1344               	/* prologue: function */
 1345               	/* frame size = 0 */
 1346               	/* stack size = 0 */
 1347               	.L__stack_usage = 0
 1348 0000 0895      		ret
 1349               		.cfi_endproc
 1350               	.LFE128:
 1352               		.section	.text.EVENT_USB_Device_Suspend,"ax",@progbits
 1353               	.global	EVENT_USB_Device_Suspend
 1355               	EVENT_USB_Device_Suspend:
 1356               	.LFB112:
 182:../tmk_core/protocol/lufa/lufa.c ****     print("[S]");
 1357               		.loc 1 182 0
 1358               		.cfi_startproc
 1359               	/* prologue: function */
 1360               	/* frame size = 0 */
 1361               	/* stack size = 0 */
 1362               	.L__stack_usage = 0
 183:../tmk_core/protocol/lufa/lufa.c ****     hook_usb_suspend_entry();
 1363               		.loc 1 183 0
 1364 0000 80E0      		ldi r24,lo8(__c.4723)
 1365 0002 90E0      		ldi r25,hi8(__c.4723)
 1366 0004 0E94 0000 		call xputs
 1367               	.LVL108:
 184:../tmk_core/protocol/lufa/lufa.c **** }
 1368               		.loc 1 184 0
 1369 0008 0C94 0000 		jmp hook_usb_suspend_entry
 1370               	.LVL109:
 1371               		.cfi_endproc
 1372               	.LFE112:
 1374               		.section	.text.hook_usb_suspend_loop,"ax",@progbits
 1375               		.weak	hook_usb_suspend_loop
 1377               	hook_usb_suspend_loop:
 1378               	.LFB129:
 637:../tmk_core/protocol/lufa/lufa.c **** #ifdef SLEEP_LED_ENABLE
 638:../tmk_core/protocol/lufa/lufa.c ****     sleep_led_enable();
 639:../tmk_core/protocol/lufa/lufa.c **** #endif
 640:../tmk_core/protocol/lufa/lufa.c **** }
 641:../tmk_core/protocol/lufa/lufa.c **** 
 642:../tmk_core/protocol/lufa/lufa.c **** __attribute__((weak))
 643:../tmk_core/protocol/lufa/lufa.c **** void hook_usb_suspend_loop(void)
 644:../tmk_core/protocol/lufa/lufa.c **** {
 1379               		.loc 1 644 0
 1380               		.cfi_startproc
 1381               	/* prologue: function */
 1382               	/* frame size = 0 */
 1383               	/* stack size = 0 */
 1384               	.L__stack_usage = 0
 645:../tmk_core/protocol/lufa/lufa.c ****     suspend_power_down();
 1385               		.loc 1 645 0
 1386 0000 0E94 0000 		call suspend_power_down
 1387               	.LVL110:
 646:../tmk_core/protocol/lufa/lufa.c ****     if (USB_Device_RemoteWakeupEnabled && suspend_wakeup_condition()) {
 1388               		.loc 1 646 0
 1389 0004 8091 0000 		lds r24,USB_Device_RemoteWakeupEnabled
 1390 0008 8823      		tst r24
 1391 000a 01F0      		breq .L165
 1392               		.loc 1 646 0 is_stmt 0 discriminator 1
 1393 000c 0E94 0000 		call suspend_wakeup_condition
 1394               	.LVL111:
 1395 0010 8111      		cpse r24,__zero_reg__
 647:../tmk_core/protocol/lufa/lufa.c ****             USB_Device_SendRemoteWakeup();
 1396               		.loc 1 647 0 is_stmt 1
 1397 0012 0C94 0000 		jmp USB_Device_SendRemoteWakeup
 1398               	.LVL112:
 1399               	.L165:
 1400 0016 0895      		ret
 1401               		.cfi_endproc
 1402               	.LFE129:
 1404               		.section	.text.startup.main,"ax",@progbits
 1405               		.weak	main
 1407               	main:
 1408               	.LFB125:
 586:../tmk_core/protocol/lufa/lufa.c ****     setup_mcu();
 1409               		.loc 1 586 0
 1410               		.cfi_startproc
 1411               	/* prologue: function */
 1412               	/* frame size = 0 */
 1413               	/* stack size = 0 */
 1414               	.L__stack_usage = 0
 1415               	.LBB357:
 1416               	.LBB358:
 565:../tmk_core/protocol/lufa/lufa.c ****     wdt_disable();
 1417               		.loc 1 565 0
 1418 0000 84B7      		in r24,0x34
 1419 0002 877F      		andi r24,lo8(-9)
 1420 0004 84BF      		out 0x34,r24
 1421               	.LBB359:
 1422               	.LBB360:
 1423               		.file 5 "/usr/lib/avr/include/avr/wdt.h"
   1:/usr/lib/avr/include/avr/wdt.h **** /* Copyright (c) 2002, 2004 Marek Michalkiewicz
   2:/usr/lib/avr/include/avr/wdt.h ****    Copyright (c) 2005, 2006, 2007 Eric B. Weddington
   3:/usr/lib/avr/include/avr/wdt.h ****    All rights reserved.
   4:/usr/lib/avr/include/avr/wdt.h **** 
   5:/usr/lib/avr/include/avr/wdt.h ****    Redistribution and use in source and binary forms, with or without
   6:/usr/lib/avr/include/avr/wdt.h ****    modification, are permitted provided that the following conditions are met:
   7:/usr/lib/avr/include/avr/wdt.h **** 
   8:/usr/lib/avr/include/avr/wdt.h ****    * Redistributions of source code must retain the above copyright
   9:/usr/lib/avr/include/avr/wdt.h ****      notice, this list of conditions and the following disclaimer.
  10:/usr/lib/avr/include/avr/wdt.h **** 
  11:/usr/lib/avr/include/avr/wdt.h ****    * Redistributions in binary form must reproduce the above copyright
  12:/usr/lib/avr/include/avr/wdt.h ****      notice, this list of conditions and the following disclaimer in
  13:/usr/lib/avr/include/avr/wdt.h ****      the documentation and/or other materials provided with the
  14:/usr/lib/avr/include/avr/wdt.h ****      distribution.
  15:/usr/lib/avr/include/avr/wdt.h **** 
  16:/usr/lib/avr/include/avr/wdt.h ****    * Neither the name of the copyright holders nor the names of
  17:/usr/lib/avr/include/avr/wdt.h ****      contributors may be used to endorse or promote products derived
  18:/usr/lib/avr/include/avr/wdt.h ****      from this software without specific prior written permission.
  19:/usr/lib/avr/include/avr/wdt.h **** 
  20:/usr/lib/avr/include/avr/wdt.h ****   THIS SOFTWARE IS PROVIDED BY THE COPYRIGHT HOLDERS AND CONTRIBUTORS "AS IS"
  21:/usr/lib/avr/include/avr/wdt.h ****   AND ANY EXPRESS OR IMPLIED WARRANTIES, INCLUDING, BUT NOT LIMITED TO, THE
  22:/usr/lib/avr/include/avr/wdt.h ****   IMPLIED WARRANTIES OF MERCHANTABILITY AND FITNESS FOR A PARTICULAR PURPOSE
  23:/usr/lib/avr/include/avr/wdt.h ****   ARE DISCLAIMED. IN NO EVENT SHALL THE COPYRIGHT OWNER OR CONTRIBUTORS BE
  24:/usr/lib/avr/include/avr/wdt.h ****   LIABLE FOR ANY DIRECT, INDIRECT, INCIDENTAL, SPECIAL, EXEMPLARY, OR
  25:/usr/lib/avr/include/avr/wdt.h ****   CONSEQUENTIAL DAMAGES (INCLUDING, BUT NOT LIMITED TO, PROCUREMENT OF
  26:/usr/lib/avr/include/avr/wdt.h ****   SUBSTITUTE GOODS OR SERVICES; LOSS OF USE, DATA, OR PROFITS; OR BUSINESS
  27:/usr/lib/avr/include/avr/wdt.h ****   INTERRUPTION) HOWEVER CAUSED AND ON ANY THEORY OF LIABILITY, WHETHER IN
  28:/usr/lib/avr/include/avr/wdt.h ****   CONTRACT, STRICT LIABILITY, OR TORT (INCLUDING NEGLIGENCE OR OTHERWISE)
  29:/usr/lib/avr/include/avr/wdt.h ****   ARISING IN ANY WAY OUT OF THE USE OF THIS SOFTWARE, EVEN IF ADVISED OF THE
  30:/usr/lib/avr/include/avr/wdt.h ****   POSSIBILITY OF SUCH DAMAGE. */
  31:/usr/lib/avr/include/avr/wdt.h **** 
  32:/usr/lib/avr/include/avr/wdt.h **** /* $Id$ */
  33:/usr/lib/avr/include/avr/wdt.h **** 
  34:/usr/lib/avr/include/avr/wdt.h **** /*
  35:/usr/lib/avr/include/avr/wdt.h ****    avr/wdt.h - macros for AVR watchdog timer
  36:/usr/lib/avr/include/avr/wdt.h ****  */
  37:/usr/lib/avr/include/avr/wdt.h **** 
  38:/usr/lib/avr/include/avr/wdt.h **** #ifndef _AVR_WDT_H_
  39:/usr/lib/avr/include/avr/wdt.h **** #define _AVR_WDT_H_
  40:/usr/lib/avr/include/avr/wdt.h **** 
  41:/usr/lib/avr/include/avr/wdt.h **** #include <avr/io.h>
  42:/usr/lib/avr/include/avr/wdt.h **** #include <stdint.h>
  43:/usr/lib/avr/include/avr/wdt.h **** 
  44:/usr/lib/avr/include/avr/wdt.h **** /** \file */
  45:/usr/lib/avr/include/avr/wdt.h **** /** \defgroup avr_watchdog <avr/wdt.h>: Watchdog timer handling
  46:/usr/lib/avr/include/avr/wdt.h ****     \code #include <avr/wdt.h> \endcode
  47:/usr/lib/avr/include/avr/wdt.h **** 
  48:/usr/lib/avr/include/avr/wdt.h ****     This header file declares the interface to some inline macros
  49:/usr/lib/avr/include/avr/wdt.h ****     handling the watchdog timer present in many AVR devices.  In order
  50:/usr/lib/avr/include/avr/wdt.h ****     to prevent the watchdog timer configuration from being
  51:/usr/lib/avr/include/avr/wdt.h ****     accidentally altered by a crashing application, a special timed
  52:/usr/lib/avr/include/avr/wdt.h ****     sequence is required in order to change it.  The macros within
  53:/usr/lib/avr/include/avr/wdt.h ****     this header file handle the required sequence automatically
  54:/usr/lib/avr/include/avr/wdt.h ****     before changing any value.  Interrupts will be disabled during
  55:/usr/lib/avr/include/avr/wdt.h ****     the manipulation.
  56:/usr/lib/avr/include/avr/wdt.h **** 
  57:/usr/lib/avr/include/avr/wdt.h ****     \note Depending on the fuse configuration of the particular
  58:/usr/lib/avr/include/avr/wdt.h ****     device, further restrictions might apply, in particular it might
  59:/usr/lib/avr/include/avr/wdt.h ****     be disallowed to turn off the watchdog timer.
  60:/usr/lib/avr/include/avr/wdt.h **** 
  61:/usr/lib/avr/include/avr/wdt.h ****     Note that for newer devices (ATmega88 and newer, effectively any
  62:/usr/lib/avr/include/avr/wdt.h ****     AVR that has the option to also generate interrupts), the watchdog
  63:/usr/lib/avr/include/avr/wdt.h ****     timer remains active even after a system reset (except a power-on
  64:/usr/lib/avr/include/avr/wdt.h ****     condition), using the fastest prescaler value (approximately 15
  65:/usr/lib/avr/include/avr/wdt.h ****     ms).  It is therefore required to turn off the watchdog early
  66:/usr/lib/avr/include/avr/wdt.h ****     during program startup, the datasheet recommends a sequence like
  67:/usr/lib/avr/include/avr/wdt.h ****     the following:
  68:/usr/lib/avr/include/avr/wdt.h **** 
  69:/usr/lib/avr/include/avr/wdt.h ****     \code
  70:/usr/lib/avr/include/avr/wdt.h ****     #include <stdint.h>
  71:/usr/lib/avr/include/avr/wdt.h ****     #include <avr/wdt.h>
  72:/usr/lib/avr/include/avr/wdt.h **** 
  73:/usr/lib/avr/include/avr/wdt.h ****     uint8_t mcusr_mirror __attribute__ ((section (".noinit")));
  74:/usr/lib/avr/include/avr/wdt.h **** 
  75:/usr/lib/avr/include/avr/wdt.h ****     void get_mcusr(void) \
  76:/usr/lib/avr/include/avr/wdt.h ****       __attribute__((naked)) \
  77:/usr/lib/avr/include/avr/wdt.h ****       __attribute__((section(".init3")));
  78:/usr/lib/avr/include/avr/wdt.h ****     void get_mcusr(void)
  79:/usr/lib/avr/include/avr/wdt.h ****     {
  80:/usr/lib/avr/include/avr/wdt.h ****       mcusr_mirror = MCUSR;
  81:/usr/lib/avr/include/avr/wdt.h ****       MCUSR = 0;
  82:/usr/lib/avr/include/avr/wdt.h ****       wdt_disable();
  83:/usr/lib/avr/include/avr/wdt.h ****     }
  84:/usr/lib/avr/include/avr/wdt.h ****     \endcode
  85:/usr/lib/avr/include/avr/wdt.h **** 
  86:/usr/lib/avr/include/avr/wdt.h ****     Saving the value of MCUSR in \c mcusr_mirror is only needed if the
  87:/usr/lib/avr/include/avr/wdt.h ****     application later wants to examine the reset source, but in particular, 
  88:/usr/lib/avr/include/avr/wdt.h ****     clearing the watchdog reset flag before disabling the
  89:/usr/lib/avr/include/avr/wdt.h ****     watchdog is required, according to the datasheet.
  90:/usr/lib/avr/include/avr/wdt.h **** */
  91:/usr/lib/avr/include/avr/wdt.h **** 
  92:/usr/lib/avr/include/avr/wdt.h **** /**
  93:/usr/lib/avr/include/avr/wdt.h ****    \ingroup avr_watchdog
  94:/usr/lib/avr/include/avr/wdt.h ****    Reset the watchdog timer.  When the watchdog timer is enabled,
  95:/usr/lib/avr/include/avr/wdt.h ****    a call to this instruction is required before the timer expires,
  96:/usr/lib/avr/include/avr/wdt.h ****    otherwise a watchdog-initiated device reset will occur. 
  97:/usr/lib/avr/include/avr/wdt.h **** */
  98:/usr/lib/avr/include/avr/wdt.h **** 
  99:/usr/lib/avr/include/avr/wdt.h **** #define wdt_reset() __asm__ __volatile__ ("wdr")
 100:/usr/lib/avr/include/avr/wdt.h **** 
 101:/usr/lib/avr/include/avr/wdt.h **** 
 102:/usr/lib/avr/include/avr/wdt.h **** #if defined(WDP3)
 103:/usr/lib/avr/include/avr/wdt.h **** # define _WD_PS3_MASK       _BV(WDP3)
 104:/usr/lib/avr/include/avr/wdt.h **** #else
 105:/usr/lib/avr/include/avr/wdt.h **** # define _WD_PS3_MASK       0x00
 106:/usr/lib/avr/include/avr/wdt.h **** #endif
 107:/usr/lib/avr/include/avr/wdt.h **** 
 108:/usr/lib/avr/include/avr/wdt.h **** #if defined(WDTCSR)
 109:/usr/lib/avr/include/avr/wdt.h **** #  define _WD_CONTROL_REG     WDTCSR
 110:/usr/lib/avr/include/avr/wdt.h **** #elif defined(WDTCR)
 111:/usr/lib/avr/include/avr/wdt.h **** #  define _WD_CONTROL_REG     WDTCR
 112:/usr/lib/avr/include/avr/wdt.h **** #else
 113:/usr/lib/avr/include/avr/wdt.h **** #  define _WD_CONTROL_REG     WDT
 114:/usr/lib/avr/include/avr/wdt.h **** #endif
 115:/usr/lib/avr/include/avr/wdt.h **** 
 116:/usr/lib/avr/include/avr/wdt.h **** #if defined(WDTOE)
 117:/usr/lib/avr/include/avr/wdt.h **** #define _WD_CHANGE_BIT      WDTOE
 118:/usr/lib/avr/include/avr/wdt.h **** #else
 119:/usr/lib/avr/include/avr/wdt.h **** #define _WD_CHANGE_BIT      WDCE
 120:/usr/lib/avr/include/avr/wdt.h **** #endif
 121:/usr/lib/avr/include/avr/wdt.h **** 
 122:/usr/lib/avr/include/avr/wdt.h **** 
 123:/usr/lib/avr/include/avr/wdt.h **** /**
 124:/usr/lib/avr/include/avr/wdt.h ****    \ingroup avr_watchdog
 125:/usr/lib/avr/include/avr/wdt.h ****    Enable the watchdog timer, configuring it for expiry after
 126:/usr/lib/avr/include/avr/wdt.h ****    \c timeout (which is a combination of the \c WDP0 through
 127:/usr/lib/avr/include/avr/wdt.h ****    \c WDP2 bits to write into the \c WDTCR register; For those devices 
 128:/usr/lib/avr/include/avr/wdt.h ****    that have a \c WDTCSR register, it uses the combination of the \c WDP0 
 129:/usr/lib/avr/include/avr/wdt.h ****    through \c WDP3 bits).
 130:/usr/lib/avr/include/avr/wdt.h **** 
 131:/usr/lib/avr/include/avr/wdt.h ****    See also the symbolic constants \c WDTO_15MS et al.
 132:/usr/lib/avr/include/avr/wdt.h **** */
 133:/usr/lib/avr/include/avr/wdt.h **** 
 134:/usr/lib/avr/include/avr/wdt.h **** 
 135:/usr/lib/avr/include/avr/wdt.h **** #if defined(__AVR_XMEGA__)
 136:/usr/lib/avr/include/avr/wdt.h **** 
 137:/usr/lib/avr/include/avr/wdt.h **** /*
 138:/usr/lib/avr/include/avr/wdt.h ****    wdt_enable(timeout) for xmega devices
 139:/usr/lib/avr/include/avr/wdt.h **** ** write signature (CCP_IOREG_gc) that enables change of protected I/O
 140:/usr/lib/avr/include/avr/wdt.h ****    registers to the CCP register
 141:/usr/lib/avr/include/avr/wdt.h **** ** At the same time,
 142:/usr/lib/avr/include/avr/wdt.h ****    1) set WDT change enable (WDT_CEN_bm)
 143:/usr/lib/avr/include/avr/wdt.h ****    2) enable WDT (WDT_ENABLE_bm)
 144:/usr/lib/avr/include/avr/wdt.h ****    3) set timeout (timeout)
 145:/usr/lib/avr/include/avr/wdt.h **** ** Synchronization starts when ENABLE bit of WDT is set. So, wait till it
 146:/usr/lib/avr/include/avr/wdt.h ****    finishes (SYNCBUSY of STATUS register is automatically cleared after the
 147:/usr/lib/avr/include/avr/wdt.h ****    sync is finished).
 148:/usr/lib/avr/include/avr/wdt.h **** */
 149:/usr/lib/avr/include/avr/wdt.h **** #define wdt_enable(timeout) \
 150:/usr/lib/avr/include/avr/wdt.h **** do { \
 151:/usr/lib/avr/include/avr/wdt.h **** uint8_t temp; \
 152:/usr/lib/avr/include/avr/wdt.h **** __asm__ __volatile__ (         \
 153:/usr/lib/avr/include/avr/wdt.h ****     "in __tmp_reg__, %[rampd]"              "\n\t" \
 154:/usr/lib/avr/include/avr/wdt.h ****     "out %[rampd], __zero_reg__"            "\n\t" \
 155:/usr/lib/avr/include/avr/wdt.h ****     "out %[ccp_reg], %[ioreg_cen_mask]"     "\n\t" \
 156:/usr/lib/avr/include/avr/wdt.h ****     "sts %[wdt_reg], %[wdt_enable_timeout]" "\n\t" \
 157:/usr/lib/avr/include/avr/wdt.h ****     "1:lds %[tmp], %[wdt_status_reg]"       "\n\t" \
 158:/usr/lib/avr/include/avr/wdt.h ****     "sbrc %[tmp], %[wdt_syncbusy_bit]"      "\n\t" \
 159:/usr/lib/avr/include/avr/wdt.h ****     "rjmp 1b"                               "\n\t" \
 160:/usr/lib/avr/include/avr/wdt.h ****     "out %[rampd], __tmp_reg__"             "\n\t" \
 161:/usr/lib/avr/include/avr/wdt.h ****     : [tmp]                "=r" (temp) \
 162:/usr/lib/avr/include/avr/wdt.h ****     : [rampd]              "I" (_SFR_IO_ADDR(RAMPD)),      \
 163:/usr/lib/avr/include/avr/wdt.h ****       [ccp_reg]            "I" (_SFR_IO_ADDR(CCP)),        \
 164:/usr/lib/avr/include/avr/wdt.h ****       [ioreg_cen_mask]     "r" ((uint8_t)CCP_IOREG_gc),     \
 165:/usr/lib/avr/include/avr/wdt.h ****       [wdt_reg]            "n" (_SFR_MEM_ADDR(WDT_CTRL)),   \
 166:/usr/lib/avr/include/avr/wdt.h ****       [wdt_enable_timeout] "r" ((uint8_t)(WDT_CEN_bm | WDT_ENABLE_bm | timeout)), \
 167:/usr/lib/avr/include/avr/wdt.h ****       [wdt_status_reg]     "n" (_SFR_MEM_ADDR(WDT_STATUS)), \
 168:/usr/lib/avr/include/avr/wdt.h ****       [wdt_syncbusy_bit]   "I" (WDT_SYNCBUSY_bm)            \
 169:/usr/lib/avr/include/avr/wdt.h ****     : "r0" \
 170:/usr/lib/avr/include/avr/wdt.h **** ); \
 171:/usr/lib/avr/include/avr/wdt.h **** } while(0)
 172:/usr/lib/avr/include/avr/wdt.h **** 
 173:/usr/lib/avr/include/avr/wdt.h **** #define wdt_disable() \
 174:/usr/lib/avr/include/avr/wdt.h **** __asm__ __volatile__ (  \
 175:/usr/lib/avr/include/avr/wdt.h ****     "in __tmp_reg__, %[rampd]"          "\n\t" \
 176:/usr/lib/avr/include/avr/wdt.h ****     "out %[rampd], __zero_reg__"        "\n\t" \
 177:/usr/lib/avr/include/avr/wdt.h ****     "out %[ccp_reg], %[ioreg_cen_mask]" "\n\t" \
 178:/usr/lib/avr/include/avr/wdt.h ****     "sts %[wdt_reg], %[disable_mask]"   "\n\t" \
 179:/usr/lib/avr/include/avr/wdt.h ****     "out %[rampd], __tmp_reg__"         "\n\t" \
 180:/usr/lib/avr/include/avr/wdt.h ****     : \
 181:/usr/lib/avr/include/avr/wdt.h ****     : [rampd]             "I" (_SFR_IO_ADDR(RAMPD)),    \
 182:/usr/lib/avr/include/avr/wdt.h ****       [ccp_reg]           "I" (_SFR_IO_ADDR(CCP)),      \
 183:/usr/lib/avr/include/avr/wdt.h ****       [ioreg_cen_mask]    "r" ((uint8_t)CCP_IOREG_gc),   \
 184:/usr/lib/avr/include/avr/wdt.h ****       [wdt_reg]           "n" (_SFR_MEM_ADDR(WDT_CTRL)), \
 185:/usr/lib/avr/include/avr/wdt.h ****       [disable_mask]      "r" ((uint8_t)((~WDT_ENABLE_bm) | WDT_CEN_bm)) \
 186:/usr/lib/avr/include/avr/wdt.h ****     : "r0" \
 187:/usr/lib/avr/include/avr/wdt.h **** );
 188:/usr/lib/avr/include/avr/wdt.h **** 
 189:/usr/lib/avr/include/avr/wdt.h **** #elif defined(__AVR_TINY__)
 190:/usr/lib/avr/include/avr/wdt.h **** 
 191:/usr/lib/avr/include/avr/wdt.h **** #define wdt_enable(value) \
 192:/usr/lib/avr/include/avr/wdt.h **** __asm__ __volatile__ ( \
 193:/usr/lib/avr/include/avr/wdt.h ****     "in __tmp_reg__,__SREG__" "\n\t"  \
 194:/usr/lib/avr/include/avr/wdt.h ****     "cli" "\n\t"  \
 195:/usr/lib/avr/include/avr/wdt.h ****     "wdr" "\n\t"  \
 196:/usr/lib/avr/include/avr/wdt.h ****     "out %[CCPADDRESS],%[SIGNATURE]" "\n\t"  \
 197:/usr/lib/avr/include/avr/wdt.h ****     "out %[WDTREG],%[WDVALUE]" "\n\t"  \
 198:/usr/lib/avr/include/avr/wdt.h ****     "out __SREG__,__tmp_reg__" "\n\t"  \
 199:/usr/lib/avr/include/avr/wdt.h ****     : /* no outputs */  \
 200:/usr/lib/avr/include/avr/wdt.h ****     : [CCPADDRESS] "I" (_SFR_IO_ADDR(CCP)),  \
 201:/usr/lib/avr/include/avr/wdt.h ****       [SIGNATURE] "r" ((uint8_t)0xD8), \
 202:/usr/lib/avr/include/avr/wdt.h ****       [WDTREG] "I" (_SFR_IO_ADDR(_WD_CONTROL_REG)), \
 203:/usr/lib/avr/include/avr/wdt.h ****       [WDVALUE] "r" ((uint8_t)((value & 0x08 ? _WD_PS3_MASK : 0x00) \
 204:/usr/lib/avr/include/avr/wdt.h ****       | _BV(WDE) | (value & 0x07) )) \
 205:/usr/lib/avr/include/avr/wdt.h ****     : "r16" \
 206:/usr/lib/avr/include/avr/wdt.h **** )
 207:/usr/lib/avr/include/avr/wdt.h **** 
 208:/usr/lib/avr/include/avr/wdt.h **** #define wdt_disable() \
 209:/usr/lib/avr/include/avr/wdt.h **** do { \
 210:/usr/lib/avr/include/avr/wdt.h **** uint8_t temp_wd; \
 211:/usr/lib/avr/include/avr/wdt.h **** __asm__ __volatile__ ( \
 212:/usr/lib/avr/include/avr/wdt.h ****     "in __tmp_reg__,__SREG__" "\n\t"  \
 213:/usr/lib/avr/include/avr/wdt.h ****     "cli" "\n\t"  \
 214:/usr/lib/avr/include/avr/wdt.h ****     "wdr" "\n\t"  \
 215:/usr/lib/avr/include/avr/wdt.h ****     "out %[CCPADDRESS],%[SIGNATURE]" "\n\t"  \
 216:/usr/lib/avr/include/avr/wdt.h ****     "in  %[TEMP_WD],%[WDTREG]" "\n\t" \
 217:/usr/lib/avr/include/avr/wdt.h ****     "cbr %[TEMP_WD],%[WDVALUE]" "\n\t" \
 218:/usr/lib/avr/include/avr/wdt.h ****     "out %[WDTREG],%[TEMP_WD]" "\n\t" \
 219:/usr/lib/avr/include/avr/wdt.h ****     "out __SREG__,__tmp_reg__" "\n\t" \
 220:/usr/lib/avr/include/avr/wdt.h ****     : /*no output */ \
 221:/usr/lib/avr/include/avr/wdt.h ****     : [CCPADDRESS] "I" (_SFR_IO_ADDR(CCP)), \
 222:/usr/lib/avr/include/avr/wdt.h ****       [SIGNATURE] "r" ((uint8_t)0xD8), \
 223:/usr/lib/avr/include/avr/wdt.h ****       [WDTREG] "I" (_SFR_IO_ADDR(_WD_CONTROL_REG)), \
 224:/usr/lib/avr/include/avr/wdt.h ****       [TEMP_WD] "d" (temp_wd), \
 225:/usr/lib/avr/include/avr/wdt.h ****       [WDVALUE] "n" (1 << WDE) \
 226:/usr/lib/avr/include/avr/wdt.h ****     : "r16" \
 227:/usr/lib/avr/include/avr/wdt.h **** ); \
 228:/usr/lib/avr/include/avr/wdt.h **** }while(0)
 229:/usr/lib/avr/include/avr/wdt.h **** 
 230:/usr/lib/avr/include/avr/wdt.h **** #elif defined(CCP)
 231:/usr/lib/avr/include/avr/wdt.h **** 
 232:/usr/lib/avr/include/avr/wdt.h **** static __inline__
 233:/usr/lib/avr/include/avr/wdt.h **** __attribute__ ((__always_inline__))
 234:/usr/lib/avr/include/avr/wdt.h **** void wdt_enable (const uint8_t value)
 235:/usr/lib/avr/include/avr/wdt.h **** {
 236:/usr/lib/avr/include/avr/wdt.h **** 	if (!_SFR_IO_REG_P (CCP) && !_SFR_IO_REG_P (_WD_CONTROL_REG))
 237:/usr/lib/avr/include/avr/wdt.h **** 	{
 238:/usr/lib/avr/include/avr/wdt.h **** 		__asm__ __volatile__ (
 239:/usr/lib/avr/include/avr/wdt.h **** 			"in __tmp_reg__,__SREG__" "\n\t"
 240:/usr/lib/avr/include/avr/wdt.h **** 			"cli" "\n\t"
 241:/usr/lib/avr/include/avr/wdt.h **** 			"wdr" "\n\t"
 242:/usr/lib/avr/include/avr/wdt.h **** 			"sts %[CCPADDRESS],%[SIGNATURE]" "\n\t"
 243:/usr/lib/avr/include/avr/wdt.h **** 			"sts %[WDTREG],%[WDVALUE]" "\n\t"
 244:/usr/lib/avr/include/avr/wdt.h **** 			"out __SREG__,__tmp_reg__" "\n\t"
 245:/usr/lib/avr/include/avr/wdt.h **** 			: /* no outputs */
 246:/usr/lib/avr/include/avr/wdt.h **** 			: [CCPADDRESS] "n" (_SFR_MEM_ADDR(CCP)),
 247:/usr/lib/avr/include/avr/wdt.h **** 			[SIGNATURE] "r" ((uint8_t)0xD8),
 248:/usr/lib/avr/include/avr/wdt.h **** 			[WDTREG] "n" (_SFR_MEM_ADDR(_WD_CONTROL_REG)),
 249:/usr/lib/avr/include/avr/wdt.h **** 			[WDVALUE] "r" ((uint8_t)((value & 0x08 ? _WD_PS3_MASK : 0x00)
 250:/usr/lib/avr/include/avr/wdt.h **** 				| _BV(WDE) | (value & 0x07) ))
 251:/usr/lib/avr/include/avr/wdt.h **** 			: "r0"
 252:/usr/lib/avr/include/avr/wdt.h **** 			);
 253:/usr/lib/avr/include/avr/wdt.h **** 	}
 254:/usr/lib/avr/include/avr/wdt.h **** 	else if (!_SFR_IO_REG_P (CCP) && _SFR_IO_REG_P (_WD_CONTROL_REG))
 255:/usr/lib/avr/include/avr/wdt.h **** 	{
 256:/usr/lib/avr/include/avr/wdt.h **** 		__asm__ __volatile__ (
 257:/usr/lib/avr/include/avr/wdt.h **** 			"in __tmp_reg__,__SREG__" "\n\t"
 258:/usr/lib/avr/include/avr/wdt.h **** 			"cli" "\n\t"
 259:/usr/lib/avr/include/avr/wdt.h **** 			"wdr" "\n\t"
 260:/usr/lib/avr/include/avr/wdt.h **** 			"sts %[CCPADDRESS],%[SIGNATURE]" "\n\t"
 261:/usr/lib/avr/include/avr/wdt.h **** 			"out %[WDTREG],%[WDVALUE]" "\n\t"
 262:/usr/lib/avr/include/avr/wdt.h **** 			"out __SREG__,__tmp_reg__" "\n\t"
 263:/usr/lib/avr/include/avr/wdt.h **** 			: /* no outputs */
 264:/usr/lib/avr/include/avr/wdt.h **** 			: [CCPADDRESS] "n" (_SFR_MEM_ADDR(CCP)),
 265:/usr/lib/avr/include/avr/wdt.h **** 			[SIGNATURE] "r" ((uint8_t)0xD8),
 266:/usr/lib/avr/include/avr/wdt.h **** 			[WDTREG] "I" (_SFR_IO_ADDR(_WD_CONTROL_REG)),
 267:/usr/lib/avr/include/avr/wdt.h **** 			[WDVALUE] "r" ((uint8_t)((value & 0x08 ? _WD_PS3_MASK : 0x00)
 268:/usr/lib/avr/include/avr/wdt.h **** 				| _BV(WDE) | (value & 0x07) ))
 269:/usr/lib/avr/include/avr/wdt.h **** 			: "r0"
 270:/usr/lib/avr/include/avr/wdt.h **** 			);
 271:/usr/lib/avr/include/avr/wdt.h **** 	}
 272:/usr/lib/avr/include/avr/wdt.h **** 	else if (_SFR_IO_REG_P (CCP) && !_SFR_IO_REG_P (_WD_CONTROL_REG))
 273:/usr/lib/avr/include/avr/wdt.h **** 	{
 274:/usr/lib/avr/include/avr/wdt.h **** 		__asm__ __volatile__ (
 275:/usr/lib/avr/include/avr/wdt.h **** 			"in __tmp_reg__,__SREG__" "\n\t"
 276:/usr/lib/avr/include/avr/wdt.h **** 			"cli" "\n\t"
 277:/usr/lib/avr/include/avr/wdt.h **** 			"wdr" "\n\t"
 278:/usr/lib/avr/include/avr/wdt.h **** 			"out %[CCPADDRESS],%[SIGNATURE]" "\n\t"
 279:/usr/lib/avr/include/avr/wdt.h **** 			"sts %[WDTREG],%[WDVALUE]" "\n\t"
 280:/usr/lib/avr/include/avr/wdt.h **** 			"out __SREG__,__tmp_reg__" "\n\t"
 281:/usr/lib/avr/include/avr/wdt.h **** 			: /* no outputs */
 282:/usr/lib/avr/include/avr/wdt.h **** 			: [CCPADDRESS] "I" (_SFR_IO_ADDR(CCP)),
 283:/usr/lib/avr/include/avr/wdt.h **** 			[SIGNATURE] "r" ((uint8_t)0xD8),
 284:/usr/lib/avr/include/avr/wdt.h **** 			[WDTREG] "n" (_SFR_MEM_ADDR(_WD_CONTROL_REG)),
 285:/usr/lib/avr/include/avr/wdt.h **** 			[WDVALUE] "r" ((uint8_t)((value & 0x08 ? _WD_PS3_MASK : 0x00)
 286:/usr/lib/avr/include/avr/wdt.h **** 				| _BV(WDE) | (value & 0x07) ))
 287:/usr/lib/avr/include/avr/wdt.h **** 			: "r0"
 288:/usr/lib/avr/include/avr/wdt.h **** 			);
 289:/usr/lib/avr/include/avr/wdt.h **** 	}
 290:/usr/lib/avr/include/avr/wdt.h **** 	else
 291:/usr/lib/avr/include/avr/wdt.h ****  	{
 292:/usr/lib/avr/include/avr/wdt.h **** 		__asm__ __volatile__ (
 293:/usr/lib/avr/include/avr/wdt.h **** 			"in __tmp_reg__,__SREG__" "\n\t"
 294:/usr/lib/avr/include/avr/wdt.h **** 			"cli" "\n\t"
 295:/usr/lib/avr/include/avr/wdt.h **** 			"wdr" "\n\t"
 296:/usr/lib/avr/include/avr/wdt.h **** 			"out %[CCPADDRESS],%[SIGNATURE]" "\n\t"
 297:/usr/lib/avr/include/avr/wdt.h **** 			"out %[WDTREG],%[WDVALUE]" "\n\t"
 298:/usr/lib/avr/include/avr/wdt.h **** 			"out __SREG__,__tmp_reg__" "\n\t"
 299:/usr/lib/avr/include/avr/wdt.h **** 			: /* no outputs */
 300:/usr/lib/avr/include/avr/wdt.h **** 			: [CCPADDRESS] "I" (_SFR_IO_ADDR(CCP)),
 301:/usr/lib/avr/include/avr/wdt.h **** 			[SIGNATURE] "r" ((uint8_t)0xD8),
 302:/usr/lib/avr/include/avr/wdt.h **** 			[WDTREG] "I" (_SFR_IO_ADDR(_WD_CONTROL_REG)),
 303:/usr/lib/avr/include/avr/wdt.h **** 			[WDVALUE] "r" ((uint8_t)((value & 0x08 ? _WD_PS3_MASK : 0x00)
 304:/usr/lib/avr/include/avr/wdt.h **** 				| _BV(WDE) | (value & 0x07) ))
 305:/usr/lib/avr/include/avr/wdt.h **** 			: "r0"
 306:/usr/lib/avr/include/avr/wdt.h **** 			);
 307:/usr/lib/avr/include/avr/wdt.h **** 	}
 308:/usr/lib/avr/include/avr/wdt.h **** }
 309:/usr/lib/avr/include/avr/wdt.h **** 
 310:/usr/lib/avr/include/avr/wdt.h **** static __inline__
 311:/usr/lib/avr/include/avr/wdt.h **** __attribute__ ((__always_inline__))
 312:/usr/lib/avr/include/avr/wdt.h **** void wdt_disable (void)
 313:/usr/lib/avr/include/avr/wdt.h **** {
 314:/usr/lib/avr/include/avr/wdt.h **** 	if (!_SFR_IO_REG_P (CCP) && !_SFR_IO_REG_P(_WD_CONTROL_REG))
 315:/usr/lib/avr/include/avr/wdt.h **** 	{
 316:/usr/lib/avr/include/avr/wdt.h ****         uint8_t temp_wd;
 317:/usr/lib/avr/include/avr/wdt.h ****         __asm__ __volatile__ (
 318:/usr/lib/avr/include/avr/wdt.h **** 				"in __tmp_reg__,__SREG__" "\n\t"
 319:/usr/lib/avr/include/avr/wdt.h **** 				"cli" "\n\t"
 320:/usr/lib/avr/include/avr/wdt.h **** 				"wdr" "\n\t"
 321:/usr/lib/avr/include/avr/wdt.h **** 				"sts %[CCPADDRESS],%[SIGNATURE]" "\n\t"
 322:/usr/lib/avr/include/avr/wdt.h **** 				"lds %[TEMP_WD],%[WDTREG]" "\n\t"
 323:/usr/lib/avr/include/avr/wdt.h **** 				"cbr %[TEMP_WD],%[WDVALUE]" "\n\t"
 324:/usr/lib/avr/include/avr/wdt.h **** 				"sts %[WDTREG],%[TEMP_WD]" "\n\t"
 325:/usr/lib/avr/include/avr/wdt.h **** 				"out __SREG__,__tmp_reg__" "\n\t"
 326:/usr/lib/avr/include/avr/wdt.h **** 				: /*no output */
 327:/usr/lib/avr/include/avr/wdt.h **** 				: [CCPADDRESS] "n" (_SFR_MEM_ADDR(CCP)),
 328:/usr/lib/avr/include/avr/wdt.h **** 				[SIGNATURE] "r" ((uint8_t)0xD8),
 329:/usr/lib/avr/include/avr/wdt.h **** 				[WDTREG] "n" (_SFR_MEM_ADDR(_WD_CONTROL_REG)),
 330:/usr/lib/avr/include/avr/wdt.h **** 				[TEMP_WD] "d" (temp_wd),
 331:/usr/lib/avr/include/avr/wdt.h **** 				[WDVALUE] "n" (1 << WDE)
 332:/usr/lib/avr/include/avr/wdt.h **** 				: "r0"
 333:/usr/lib/avr/include/avr/wdt.h **** 				);
 334:/usr/lib/avr/include/avr/wdt.h **** 	}
 335:/usr/lib/avr/include/avr/wdt.h **** 	else if (!_SFR_IO_REG_P (CCP) && _SFR_IO_REG_P(_WD_CONTROL_REG))
 336:/usr/lib/avr/include/avr/wdt.h **** 	{
 337:/usr/lib/avr/include/avr/wdt.h ****         uint8_t temp_wd;
 338:/usr/lib/avr/include/avr/wdt.h ****         __asm__ __volatile__ (
 339:/usr/lib/avr/include/avr/wdt.h **** 				"in __tmp_reg__,__SREG__" "\n\t"
 340:/usr/lib/avr/include/avr/wdt.h **** 				"cli" "\n\t"
 341:/usr/lib/avr/include/avr/wdt.h **** 				"wdr" "\n\t"
 342:/usr/lib/avr/include/avr/wdt.h **** 				"sts %[CCPADDRESS],%[SIGNATURE]" "\n\t"
 343:/usr/lib/avr/include/avr/wdt.h **** 				"in %[TEMP_WD],%[WDTREG]" "\n\t"
 344:/usr/lib/avr/include/avr/wdt.h **** 				"cbr %[TEMP_WD],%[WDVALUE]" "\n\t"
 345:/usr/lib/avr/include/avr/wdt.h **** 				"out %[WDTREG],%[TEMP_WD]" "\n\t"
 346:/usr/lib/avr/include/avr/wdt.h **** 				"out __SREG__,__tmp_reg__" "\n\t"
 347:/usr/lib/avr/include/avr/wdt.h **** 				: /*no output */
 348:/usr/lib/avr/include/avr/wdt.h **** 				: [CCPADDRESS] "n" (_SFR_MEM_ADDR(CCP)),
 349:/usr/lib/avr/include/avr/wdt.h **** 				[SIGNATURE] "r" ((uint8_t)0xD8),
 350:/usr/lib/avr/include/avr/wdt.h **** 				[WDTREG] "I" (_SFR_IO_ADDR(_WD_CONTROL_REG)),
 351:/usr/lib/avr/include/avr/wdt.h **** 				[TEMP_WD] "d" (temp_wd),
 352:/usr/lib/avr/include/avr/wdt.h **** 				[WDVALUE] "n" (1 << WDE)
 353:/usr/lib/avr/include/avr/wdt.h **** 				: "r0"
 354:/usr/lib/avr/include/avr/wdt.h **** 				);
 355:/usr/lib/avr/include/avr/wdt.h **** 	}
 356:/usr/lib/avr/include/avr/wdt.h **** 	else if (_SFR_IO_REG_P (CCP) && !_SFR_IO_REG_P(_WD_CONTROL_REG))
 357:/usr/lib/avr/include/avr/wdt.h **** 	{
 358:/usr/lib/avr/include/avr/wdt.h ****         uint8_t temp_wd;
 359:/usr/lib/avr/include/avr/wdt.h ****         __asm__ __volatile__ (
 360:/usr/lib/avr/include/avr/wdt.h **** 				"in __tmp_reg__,__SREG__" "\n\t"
 361:/usr/lib/avr/include/avr/wdt.h **** 				"cli" "\n\t"
 362:/usr/lib/avr/include/avr/wdt.h **** 				"wdr" "\n\t"
 363:/usr/lib/avr/include/avr/wdt.h **** 				"out %[CCPADDRESS],%[SIGNATURE]" "\n\t"
 364:/usr/lib/avr/include/avr/wdt.h **** 				"lds %[TEMP_WD],%[WDTREG]" "\n\t"
 365:/usr/lib/avr/include/avr/wdt.h **** 				"cbr %[TEMP_WD],%[WDVALUE]" "\n\t"
 366:/usr/lib/avr/include/avr/wdt.h **** 				"sts %[WDTREG],%[TEMP_WD]" "\n\t"
 367:/usr/lib/avr/include/avr/wdt.h **** 				"out __SREG__,__tmp_reg__" "\n\t"
 368:/usr/lib/avr/include/avr/wdt.h **** 				: /*no output */
 369:/usr/lib/avr/include/avr/wdt.h **** 				: [CCPADDRESS] "I" (_SFR_IO_ADDR(CCP)),
 370:/usr/lib/avr/include/avr/wdt.h **** 				[SIGNATURE] "r" ((uint8_t)0xD8),
 371:/usr/lib/avr/include/avr/wdt.h **** 				[WDTREG] "n" (_SFR_MEM_ADDR(_WD_CONTROL_REG)),
 372:/usr/lib/avr/include/avr/wdt.h **** 				[TEMP_WD] "d" (temp_wd),
 373:/usr/lib/avr/include/avr/wdt.h **** 				[WDVALUE] "n" (1 << WDE)
 374:/usr/lib/avr/include/avr/wdt.h **** 				: "r0"
 375:/usr/lib/avr/include/avr/wdt.h **** 				);
 376:/usr/lib/avr/include/avr/wdt.h **** 	}
 377:/usr/lib/avr/include/avr/wdt.h **** 	else
 378:/usr/lib/avr/include/avr/wdt.h **** 	{
 379:/usr/lib/avr/include/avr/wdt.h ****         uint8_t temp_wd;
 380:/usr/lib/avr/include/avr/wdt.h ****         __asm__ __volatile__ (
 381:/usr/lib/avr/include/avr/wdt.h **** 				"in __tmp_reg__,__SREG__" "\n\t"
 382:/usr/lib/avr/include/avr/wdt.h **** 				"cli" "\n\t"
 383:/usr/lib/avr/include/avr/wdt.h **** 				"wdr" "\n\t"
 384:/usr/lib/avr/include/avr/wdt.h **** 				"out %[CCPADDRESS],%[SIGNATURE]" "\n\t"
 385:/usr/lib/avr/include/avr/wdt.h **** 				"in %[TEMP_WD],%[WDTREG]" "\n\t"
 386:/usr/lib/avr/include/avr/wdt.h **** 				"cbr %[TEMP_WD],%[WDVALUE]" "\n\t"
 387:/usr/lib/avr/include/avr/wdt.h **** 				"out %[WDTREG],%[TEMP_WD]" "\n\t"
 388:/usr/lib/avr/include/avr/wdt.h **** 				"out __SREG__,__tmp_reg__" "\n\t"
 389:/usr/lib/avr/include/avr/wdt.h **** 				: /*no output */
 390:/usr/lib/avr/include/avr/wdt.h **** 				: [CCPADDRESS] "I" (_SFR_IO_ADDR(CCP)),
 391:/usr/lib/avr/include/avr/wdt.h **** 				[SIGNATURE] "r" ((uint8_t)0xD8),
 392:/usr/lib/avr/include/avr/wdt.h **** 				[WDTREG] "I" (_SFR_IO_ADDR(_WD_CONTROL_REG)),
 393:/usr/lib/avr/include/avr/wdt.h **** 				[TEMP_WD] "d" (temp_wd),
 394:/usr/lib/avr/include/avr/wdt.h **** 				[WDVALUE] "n" (1 << WDE)
 395:/usr/lib/avr/include/avr/wdt.h **** 				: "r0"
 396:/usr/lib/avr/include/avr/wdt.h **** 				);
 397:/usr/lib/avr/include/avr/wdt.h **** 	}
 398:/usr/lib/avr/include/avr/wdt.h **** }
 399:/usr/lib/avr/include/avr/wdt.h **** 
 400:/usr/lib/avr/include/avr/wdt.h **** #else
 401:/usr/lib/avr/include/avr/wdt.h **** 
 402:/usr/lib/avr/include/avr/wdt.h **** static __inline__
 403:/usr/lib/avr/include/avr/wdt.h **** __attribute__ ((__always_inline__))
 404:/usr/lib/avr/include/avr/wdt.h **** void wdt_enable (const uint8_t value)
 405:/usr/lib/avr/include/avr/wdt.h **** {
 406:/usr/lib/avr/include/avr/wdt.h **** 	if (_SFR_IO_REG_P (_WD_CONTROL_REG))
 407:/usr/lib/avr/include/avr/wdt.h **** 	{
 408:/usr/lib/avr/include/avr/wdt.h **** 		__asm__ __volatile__ (
 409:/usr/lib/avr/include/avr/wdt.h **** 				"in __tmp_reg__,__SREG__" "\n\t"
 410:/usr/lib/avr/include/avr/wdt.h **** 				"cli" "\n\t"
 411:/usr/lib/avr/include/avr/wdt.h **** 				"wdr" "\n\t"
 412:/usr/lib/avr/include/avr/wdt.h **** 				"out %0, %1" "\n\t"
 413:/usr/lib/avr/include/avr/wdt.h **** 				"out __SREG__,__tmp_reg__" "\n\t"
 414:/usr/lib/avr/include/avr/wdt.h **** 				"out %0, %2" "\n \t"
 415:/usr/lib/avr/include/avr/wdt.h **** 				: /* no outputs */
 416:/usr/lib/avr/include/avr/wdt.h **** 				: "I" (_SFR_IO_ADDR(_WD_CONTROL_REG)),
 417:/usr/lib/avr/include/avr/wdt.h **** 				"r" ((uint8_t)(_BV(_WD_CHANGE_BIT) | _BV(WDE))),
 418:/usr/lib/avr/include/avr/wdt.h **** 				"r" ((uint8_t) ((value & 0x08 ? _WD_PS3_MASK : 0x00) |
 419:/usr/lib/avr/include/avr/wdt.h **** 						_BV(WDE) | (value & 0x07)) )
 420:/usr/lib/avr/include/avr/wdt.h **** 				: "r0"
 421:/usr/lib/avr/include/avr/wdt.h **** 		);
 422:/usr/lib/avr/include/avr/wdt.h **** 	}
 423:/usr/lib/avr/include/avr/wdt.h **** 	else
 424:/usr/lib/avr/include/avr/wdt.h **** 	{
 425:/usr/lib/avr/include/avr/wdt.h **** 		__asm__ __volatile__ (
 426:/usr/lib/avr/include/avr/wdt.h **** 				"in __tmp_reg__,__SREG__" "\n\t"
 427:/usr/lib/avr/include/avr/wdt.h **** 				"cli" "\n\t"
 428:/usr/lib/avr/include/avr/wdt.h **** 				"wdr" "\n\t"
 429:/usr/lib/avr/include/avr/wdt.h **** 				"sts %0, %1" "\n\t"
 430:/usr/lib/avr/include/avr/wdt.h **** 				"out __SREG__,__tmp_reg__" "\n\t"
 431:/usr/lib/avr/include/avr/wdt.h **** 				"sts %0, %2" "\n \t"
 432:/usr/lib/avr/include/avr/wdt.h **** 				: /* no outputs */
 433:/usr/lib/avr/include/avr/wdt.h **** 				: "n" (_SFR_MEM_ADDR(_WD_CONTROL_REG)),
 434:/usr/lib/avr/include/avr/wdt.h **** 				"r" ((uint8_t)(_BV(_WD_CHANGE_BIT) | _BV(WDE))),
 435:/usr/lib/avr/include/avr/wdt.h **** 				"r" ((uint8_t) ((value & 0x08 ? _WD_PS3_MASK : 0x00) |
 436:/usr/lib/avr/include/avr/wdt.h **** 						_BV(WDE) | (value & 0x07)) )
 437:/usr/lib/avr/include/avr/wdt.h **** 				: "r0"
 438:/usr/lib/avr/include/avr/wdt.h **** 		);
 439:/usr/lib/avr/include/avr/wdt.h **** 	}
 440:/usr/lib/avr/include/avr/wdt.h **** }
 441:/usr/lib/avr/include/avr/wdt.h **** 
 442:/usr/lib/avr/include/avr/wdt.h **** static __inline__
 443:/usr/lib/avr/include/avr/wdt.h **** __attribute__ ((__always_inline__))
 444:/usr/lib/avr/include/avr/wdt.h **** void wdt_disable (void)
 445:/usr/lib/avr/include/avr/wdt.h **** {
 446:/usr/lib/avr/include/avr/wdt.h **** 	if (_SFR_IO_REG_P (_WD_CONTROL_REG))
 447:/usr/lib/avr/include/avr/wdt.h **** 	{
 448:/usr/lib/avr/include/avr/wdt.h ****         uint8_t register temp_reg;
 449:/usr/lib/avr/include/avr/wdt.h **** 		__asm__ __volatile__ (
 450:/usr/lib/avr/include/avr/wdt.h **** 				"in __tmp_reg__,__SREG__"    "\n\t"
 451:/usr/lib/avr/include/avr/wdt.h **** 				"cli"                        "\n\t"
 452:/usr/lib/avr/include/avr/wdt.h **** 				"wdr"                        "\n\t"
 453:/usr/lib/avr/include/avr/wdt.h **** 				"in  %[TEMPREG],%[WDTREG]"   "\n\t"
 454:/usr/lib/avr/include/avr/wdt.h **** 				"ori %[TEMPREG],%[WDCE_WDE]" "\n\t"
 455:/usr/lib/avr/include/avr/wdt.h **** 				"out %[WDTREG],%[TEMPREG]"   "\n\t"
 456:/usr/lib/avr/include/avr/wdt.h **** 				"out %[WDTREG],__zero_reg__" "\n\t"
 457:/usr/lib/avr/include/avr/wdt.h **** 				"out __SREG__,__tmp_reg__"   "\n\t"
 458:/usr/lib/avr/include/avr/wdt.h **** 				: [TEMPREG] "=d" (temp_reg)
 459:/usr/lib/avr/include/avr/wdt.h **** 				: [WDTREG]  "I"  (_SFR_IO_ADDR(_WD_CONTROL_REG)),
 460:/usr/lib/avr/include/avr/wdt.h **** 				[WDCE_WDE]  "n"  ((uint8_t)(_BV(_WD_CHANGE_BIT) | _BV(WDE)))
 461:/usr/lib/avr/include/avr/wdt.h **** 				: "r0"
 462:/usr/lib/avr/include/avr/wdt.h **** 		);
 463:/usr/lib/avr/include/avr/wdt.h **** 	}
 464:/usr/lib/avr/include/avr/wdt.h **** 	else
 465:/usr/lib/avr/include/avr/wdt.h **** 	{
 466:/usr/lib/avr/include/avr/wdt.h ****         uint8_t register temp_reg;
 467:/usr/lib/avr/include/avr/wdt.h **** 		__asm__ __volatile__ (
 1424               		.loc 5 467 0
 1425               	/* #APP */
 1426               	 ;  467 "/usr/lib/avr/include/avr/wdt.h" 1
 1427 0006 0FB6      		in __tmp_reg__,__SREG__
 1428 0008 F894      		cli
 1429 000a A895      		wdr
 1430 000c 8091 6000 		lds r24,96
 1431 0010 8861      		ori r24,24
 1432 0012 8093 6000 		sts 96,r24
 1433 0016 1092 6000 		sts 96,__zero_reg__
 1434 001a 0FBE      		out __SREG__,__tmp_reg__
 1435               		
 1436               	 ;  0 "" 2
 1437               	.LVL113:
 1438               	/* #NOAPP */
 1439               	.LBE360:
 1440               	.LBE359:
 1441               	.LBB361:
 1442               	.LBB362:
 1443               		.file 6 "/usr/lib/avr/include/avr/power.h"
   1:/usr/lib/avr/include/avr/power.h **** /* Copyright (c) 2006, 2007, 2008  Eric B. Weddington
   2:/usr/lib/avr/include/avr/power.h ****    Copyright (c) 2011 Frdric Nadeau
   3:/usr/lib/avr/include/avr/power.h ****    All rights reserved.
   4:/usr/lib/avr/include/avr/power.h **** 
   5:/usr/lib/avr/include/avr/power.h ****    Redistribution and use in source and binary forms, with or without
   6:/usr/lib/avr/include/avr/power.h ****    modification, are permitted provided that the following conditions are met:
   7:/usr/lib/avr/include/avr/power.h **** 
   8:/usr/lib/avr/include/avr/power.h ****    * Redistributions of source code must retain the above copyright
   9:/usr/lib/avr/include/avr/power.h ****      notice, this list of conditions and the following disclaimer.
  10:/usr/lib/avr/include/avr/power.h ****    * Redistributions in binary form must reproduce the above copyright
  11:/usr/lib/avr/include/avr/power.h ****      notice, this list of conditions and the following disclaimer in
  12:/usr/lib/avr/include/avr/power.h ****      the documentation and/or other materials provided with the
  13:/usr/lib/avr/include/avr/power.h ****      distribution.
  14:/usr/lib/avr/include/avr/power.h ****    * Neither the name of the copyright holders nor the names of
  15:/usr/lib/avr/include/avr/power.h ****      contributors may be used to endorse or promote products derived
  16:/usr/lib/avr/include/avr/power.h ****      from this software without specific prior written permission.
  17:/usr/lib/avr/include/avr/power.h **** 
  18:/usr/lib/avr/include/avr/power.h ****   THIS SOFTWARE IS PROVIDED BY THE COPYRIGHT HOLDERS AND CONTRIBUTORS "AS IS"
  19:/usr/lib/avr/include/avr/power.h ****   AND ANY EXPRESS OR IMPLIED WARRANTIES, INCLUDING, BUT NOT LIMITED TO, THE
  20:/usr/lib/avr/include/avr/power.h ****   IMPLIED WARRANTIES OF MERCHANTABILITY AND FITNESS FOR A PARTICULAR PURPOSE
  21:/usr/lib/avr/include/avr/power.h ****   ARE DISCLAIMED. IN NO EVENT SHALL THE COPYRIGHT OWNER OR CONTRIBUTORS BE
  22:/usr/lib/avr/include/avr/power.h ****   LIABLE FOR ANY DIRECT, INDIRECT, INCIDENTAL, SPECIAL, EXEMPLARY, OR
  23:/usr/lib/avr/include/avr/power.h ****   CONSEQUENTIAL DAMAGES (INCLUDING, BUT NOT LIMITED TO, PROCUREMENT OF
  24:/usr/lib/avr/include/avr/power.h ****   SUBSTITUTE GOODS OR SERVICES; LOSS OF USE, DATA, OR PROFITS; OR BUSINESS
  25:/usr/lib/avr/include/avr/power.h ****   INTERRUPTION) HOWEVER CAUSED AND ON ANY THEORY OF LIABILITY, WHETHER IN
  26:/usr/lib/avr/include/avr/power.h ****   CONTRACT, STRICT LIABILITY, OR TORT (INCLUDING NEGLIGENCE OR OTHERWISE)
  27:/usr/lib/avr/include/avr/power.h ****   ARISING IN ANY WAY OUT OF THE USE OF THIS SOFTWARE, EVEN IF ADVISED OF THE
  28:/usr/lib/avr/include/avr/power.h ****   POSSIBILITY OF SUCH DAMAGE. */
  29:/usr/lib/avr/include/avr/power.h **** 
  30:/usr/lib/avr/include/avr/power.h **** /* $Id$ */
  31:/usr/lib/avr/include/avr/power.h **** 
  32:/usr/lib/avr/include/avr/power.h **** #ifndef _AVR_POWER_H_
  33:/usr/lib/avr/include/avr/power.h **** #define _AVR_POWER_H_   1
  34:/usr/lib/avr/include/avr/power.h **** 
  35:/usr/lib/avr/include/avr/power.h **** #include <avr/io.h>
  36:/usr/lib/avr/include/avr/power.h **** #include <stdint.h>
  37:/usr/lib/avr/include/avr/power.h **** 
  38:/usr/lib/avr/include/avr/power.h **** /** \file */
  39:/usr/lib/avr/include/avr/power.h **** /** \defgroup avr_power <avr/power.h>: Power Reduction Management
  40:/usr/lib/avr/include/avr/power.h **** 
  41:/usr/lib/avr/include/avr/power.h **** \code #include <avr/power.h>\endcode
  42:/usr/lib/avr/include/avr/power.h **** 
  43:/usr/lib/avr/include/avr/power.h **** Many AVRs contain a Power Reduction Register (PRR) or Registers (PRRx) that 
  44:/usr/lib/avr/include/avr/power.h **** allow you to reduce power consumption by disabling or enabling various on-board 
  45:/usr/lib/avr/include/avr/power.h **** peripherals as needed. Some devices have the XTAL Divide Control Register
  46:/usr/lib/avr/include/avr/power.h **** (XDIV) which offer similar functionality as System Clock Prescale
  47:/usr/lib/avr/include/avr/power.h **** Register (CLKPR).
  48:/usr/lib/avr/include/avr/power.h **** 
  49:/usr/lib/avr/include/avr/power.h **** There are many macros in this header file that provide an easy interface
  50:/usr/lib/avr/include/avr/power.h **** to enable or disable on-board peripherals to reduce power. See the table below.
  51:/usr/lib/avr/include/avr/power.h **** 
  52:/usr/lib/avr/include/avr/power.h **** \note Not all AVR devices have a Power Reduction Register (for example
  53:/usr/lib/avr/include/avr/power.h **** the ATmega8). On those devices without a Power Reduction Register, the
  54:/usr/lib/avr/include/avr/power.h **** power reduction macros are not available..
  55:/usr/lib/avr/include/avr/power.h **** 
  56:/usr/lib/avr/include/avr/power.h **** \note Not all AVR devices contain the same peripherals (for example, the LCD
  57:/usr/lib/avr/include/avr/power.h **** interface), or they will be named differently (for example, USART and 
  58:/usr/lib/avr/include/avr/power.h **** USART0). Please consult your device's datasheet, or the header file, to 
  59:/usr/lib/avr/include/avr/power.h **** find out which macros are applicable to your device.
  60:/usr/lib/avr/include/avr/power.h **** 
  61:/usr/lib/avr/include/avr/power.h **** \note For device using the XTAL Divide Control Register (XDIV), when prescaler
  62:/usr/lib/avr/include/avr/power.h **** is used, Timer/Counter0 can only be used in asynchronous mode. Keep in mind
  63:/usr/lib/avr/include/avr/power.h **** that Timer/Counter0 source shall be less than th of peripheral clock.
  64:/usr/lib/avr/include/avr/power.h **** Therefore, when using a typical 32.768 kHz crystal, one shall not scale
  65:/usr/lib/avr/include/avr/power.h **** the clock below 131.072 kHz.
  66:/usr/lib/avr/include/avr/power.h **** 
  67:/usr/lib/avr/include/avr/power.h **** */
  68:/usr/lib/avr/include/avr/power.h **** 
  69:/usr/lib/avr/include/avr/power.h **** 
  70:/usr/lib/avr/include/avr/power.h **** /** \addtogroup avr_power
  71:/usr/lib/avr/include/avr/power.h **** 
  72:/usr/lib/avr/include/avr/power.h **** \anchor avr_powermacros
  73:/usr/lib/avr/include/avr/power.h **** <small>
  74:/usr/lib/avr/include/avr/power.h **** <center>
  75:/usr/lib/avr/include/avr/power.h **** <table border="3">
  76:/usr/lib/avr/include/avr/power.h ****   <tr>
  77:/usr/lib/avr/include/avr/power.h ****     <td width="10%"><strong>Power Macro</strong></td>
  78:/usr/lib/avr/include/avr/power.h ****     <td width="15%"><strong>Description</strong></td>
  79:/usr/lib/avr/include/avr/power.h ****   </tr>
  80:/usr/lib/avr/include/avr/power.h **** 
  81:/usr/lib/avr/include/avr/power.h ****   <tr>
  82:/usr/lib/avr/include/avr/power.h ****     <td>power_aca_disable()</td>
  83:/usr/lib/avr/include/avr/power.h ****     <td>Disable the Analog Comparator on PortA.</td>
  84:/usr/lib/avr/include/avr/power.h ****   </tr>
  85:/usr/lib/avr/include/avr/power.h **** 
  86:/usr/lib/avr/include/avr/power.h ****   <tr>
  87:/usr/lib/avr/include/avr/power.h ****     <td>power_aca_enable()</td>
  88:/usr/lib/avr/include/avr/power.h ****     <td>Enable the Analog Comparator on PortA.</td>
  89:/usr/lib/avr/include/avr/power.h ****   </tr>
  90:/usr/lib/avr/include/avr/power.h **** 
  91:/usr/lib/avr/include/avr/power.h ****   <tr>
  92:/usr/lib/avr/include/avr/power.h ****     <td>power_adc_enable()</td>
  93:/usr/lib/avr/include/avr/power.h ****     <td>Enable the Analog to Digital Converter module.</td>
  94:/usr/lib/avr/include/avr/power.h ****   </tr>
  95:/usr/lib/avr/include/avr/power.h **** 
  96:/usr/lib/avr/include/avr/power.h ****   <tr>
  97:/usr/lib/avr/include/avr/power.h ****     <td>power_adc_disable()</td>
  98:/usr/lib/avr/include/avr/power.h ****     <td>Disable the Analog to Digital Converter module.</td>
  99:/usr/lib/avr/include/avr/power.h ****   </tr>
 100:/usr/lib/avr/include/avr/power.h **** 
 101:/usr/lib/avr/include/avr/power.h ****   <tr>
 102:/usr/lib/avr/include/avr/power.h ****     <td>power_adca_disable()</td>
 103:/usr/lib/avr/include/avr/power.h ****     <td>Disable the Analog to Digital Converter module on PortA</td>
 104:/usr/lib/avr/include/avr/power.h ****   </tr>
 105:/usr/lib/avr/include/avr/power.h **** 
 106:/usr/lib/avr/include/avr/power.h ****   <tr>
 107:/usr/lib/avr/include/avr/power.h ****     <td>power_adca_enable()</td>
 108:/usr/lib/avr/include/avr/power.h ****     <td>Enable the Analog to Digital Converter module on PortA</td>
 109:/usr/lib/avr/include/avr/power.h ****   </tr>
 110:/usr/lib/avr/include/avr/power.h **** 
 111:/usr/lib/avr/include/avr/power.h ****   <tr>
 112:/usr/lib/avr/include/avr/power.h ****     <td>power_evsys_disable()</td>
 113:/usr/lib/avr/include/avr/power.h ****     <td>Disable the EVSYS module</td>
 114:/usr/lib/avr/include/avr/power.h ****   </tr>
 115:/usr/lib/avr/include/avr/power.h **** 
 116:/usr/lib/avr/include/avr/power.h ****   <tr>
 117:/usr/lib/avr/include/avr/power.h ****     <td>power_evsys_enable()</td>
 118:/usr/lib/avr/include/avr/power.h ****     <td>Enable the EVSYS module</td>
 119:/usr/lib/avr/include/avr/power.h ****   </tr>
 120:/usr/lib/avr/include/avr/power.h **** 
 121:/usr/lib/avr/include/avr/power.h ****   <tr>
 122:/usr/lib/avr/include/avr/power.h ****     <td>power_hiresc_disable()</td>
 123:/usr/lib/avr/include/avr/power.h ****     <td>Disable the HIRES module on PortC</td>
 124:/usr/lib/avr/include/avr/power.h ****   </tr>
 125:/usr/lib/avr/include/avr/power.h **** 
 126:/usr/lib/avr/include/avr/power.h ****   <tr>
 127:/usr/lib/avr/include/avr/power.h ****     <td>power_hiresc_enable()</td>
 128:/usr/lib/avr/include/avr/power.h ****     <td>Enable the HIRES module on PortC</td>
 129:/usr/lib/avr/include/avr/power.h ****   </tr>
 130:/usr/lib/avr/include/avr/power.h **** 
 131:/usr/lib/avr/include/avr/power.h ****    <tr>
 132:/usr/lib/avr/include/avr/power.h ****     <td>power_lcd_enable()</td>
 133:/usr/lib/avr/include/avr/power.h ****     <td>Enable the LCD module.</td>
 134:/usr/lib/avr/include/avr/power.h ****   </tr>
 135:/usr/lib/avr/include/avr/power.h **** 
 136:/usr/lib/avr/include/avr/power.h ****   <tr>
 137:/usr/lib/avr/include/avr/power.h ****     <td>power_lcd_disable().</td>
 138:/usr/lib/avr/include/avr/power.h ****     <td>Disable the LCD module.</td>
 139:/usr/lib/avr/include/avr/power.h ****   </tr>
 140:/usr/lib/avr/include/avr/power.h **** 
 141:/usr/lib/avr/include/avr/power.h ****   <tr>
 142:/usr/lib/avr/include/avr/power.h ****     <td>power_pga_enable()</td>
 143:/usr/lib/avr/include/avr/power.h ****     <td>Enable the Programmable Gain Amplifier module.</td>
 144:/usr/lib/avr/include/avr/power.h ****   </tr>
 145:/usr/lib/avr/include/avr/power.h **** 
 146:/usr/lib/avr/include/avr/power.h ****   <tr>
 147:/usr/lib/avr/include/avr/power.h ****     <td>power_pga_disable()</td>
 148:/usr/lib/avr/include/avr/power.h ****     <td>Disable the Programmable Gain Amplifier module.</td>
 149:/usr/lib/avr/include/avr/power.h ****   </tr>
 150:/usr/lib/avr/include/avr/power.h **** 
 151:/usr/lib/avr/include/avr/power.h ****   <tr>
 152:/usr/lib/avr/include/avr/power.h ****     <td>power_pscr_enable()</td>
 153:/usr/lib/avr/include/avr/power.h ****     <td>Enable the Reduced Power Stage Controller module.</td>
 154:/usr/lib/avr/include/avr/power.h ****   </tr>
 155:/usr/lib/avr/include/avr/power.h **** 
 156:/usr/lib/avr/include/avr/power.h ****   <tr>
 157:/usr/lib/avr/include/avr/power.h ****     <td>power_pscr_disable()</td>
 158:/usr/lib/avr/include/avr/power.h ****     <td>Disable the Reduced Power Stage Controller module.</td>
 159:/usr/lib/avr/include/avr/power.h ****   </tr>
 160:/usr/lib/avr/include/avr/power.h **** 
 161:/usr/lib/avr/include/avr/power.h ****   <tr>
 162:/usr/lib/avr/include/avr/power.h ****     <td>power_psc0_enable()</td>
 163:/usr/lib/avr/include/avr/power.h ****     <td>Enable the Power Stage Controller 0 module.</td>
 164:/usr/lib/avr/include/avr/power.h ****   </tr>
 165:/usr/lib/avr/include/avr/power.h **** 
 166:/usr/lib/avr/include/avr/power.h ****   <tr>
 167:/usr/lib/avr/include/avr/power.h ****     <td>power_psc0_disable()</td>
 168:/usr/lib/avr/include/avr/power.h ****     <td>Disable the Power Stage Controller 0 module.</td>
 169:/usr/lib/avr/include/avr/power.h ****   </tr>
 170:/usr/lib/avr/include/avr/power.h **** 
 171:/usr/lib/avr/include/avr/power.h ****   <tr>
 172:/usr/lib/avr/include/avr/power.h ****     <td>power_psc1_enable()</td>
 173:/usr/lib/avr/include/avr/power.h ****     <td>Enable the Power Stage Controller 1 module.</td>
 174:/usr/lib/avr/include/avr/power.h ****   </tr>
 175:/usr/lib/avr/include/avr/power.h **** 
 176:/usr/lib/avr/include/avr/power.h ****   <tr>
 177:/usr/lib/avr/include/avr/power.h ****     <td>power_psc1_disable()</td>
 178:/usr/lib/avr/include/avr/power.h ****     <td>Disable the Power Stage Controller 1 module.</td>
 179:/usr/lib/avr/include/avr/power.h ****   </tr>
 180:/usr/lib/avr/include/avr/power.h **** 
 181:/usr/lib/avr/include/avr/power.h ****   <tr>
 182:/usr/lib/avr/include/avr/power.h ****     <td>power_psc2_enable()</td>
 183:/usr/lib/avr/include/avr/power.h ****     <td>Enable the Power Stage Controller 2 module.</td>
 184:/usr/lib/avr/include/avr/power.h ****   </tr>
 185:/usr/lib/avr/include/avr/power.h **** 
 186:/usr/lib/avr/include/avr/power.h ****   <tr>
 187:/usr/lib/avr/include/avr/power.h ****     <td>power_psc2_disable()</td>
 188:/usr/lib/avr/include/avr/power.h ****     <td>Disable the Power Stage Controller 2 module.</td>
 189:/usr/lib/avr/include/avr/power.h ****   </tr>
 190:/usr/lib/avr/include/avr/power.h **** 
 191:/usr/lib/avr/include/avr/power.h ****   <tr>
 192:/usr/lib/avr/include/avr/power.h ****     <td>power_ram0_enable()</td>
 193:/usr/lib/avr/include/avr/power.h ****     <td>Enable the SRAM block 0 .</td>
 194:/usr/lib/avr/include/avr/power.h ****   </tr>
 195:/usr/lib/avr/include/avr/power.h **** 
 196:/usr/lib/avr/include/avr/power.h ****   <tr>
 197:/usr/lib/avr/include/avr/power.h ****     <td>power_ram0_disable()</td>
 198:/usr/lib/avr/include/avr/power.h ****     <td>Disable the SRAM block 0. </td>
 199:/usr/lib/avr/include/avr/power.h ****   </tr>
 200:/usr/lib/avr/include/avr/power.h **** 
 201:/usr/lib/avr/include/avr/power.h ****   <tr>
 202:/usr/lib/avr/include/avr/power.h ****     <td>power_ram1_enable()</td>
 203:/usr/lib/avr/include/avr/power.h ****     <td>Enable the SRAM block 1 .</td>
 204:/usr/lib/avr/include/avr/power.h ****   </tr>
 205:/usr/lib/avr/include/avr/power.h **** 
 206:/usr/lib/avr/include/avr/power.h ****   <tr>
 207:/usr/lib/avr/include/avr/power.h ****     <td>power_ram1_disable()</td>
 208:/usr/lib/avr/include/avr/power.h ****     <td>Disable the SRAM block 1. </td>
 209:/usr/lib/avr/include/avr/power.h ****   </tr>
 210:/usr/lib/avr/include/avr/power.h **** 
 211:/usr/lib/avr/include/avr/power.h ****   <tr>
 212:/usr/lib/avr/include/avr/power.h ****     <td>power_ram2_enable()</td>
 213:/usr/lib/avr/include/avr/power.h ****     <td>Enable the SRAM block 2 .</td>
 214:/usr/lib/avr/include/avr/power.h ****   </tr>
 215:/usr/lib/avr/include/avr/power.h **** 
 216:/usr/lib/avr/include/avr/power.h ****   <tr>
 217:/usr/lib/avr/include/avr/power.h ****     <td>power_ram2_disable()</td>
 218:/usr/lib/avr/include/avr/power.h ****     <td>Disable the SRAM block 2. </td>
 219:/usr/lib/avr/include/avr/power.h ****   </tr>
 220:/usr/lib/avr/include/avr/power.h **** 
 221:/usr/lib/avr/include/avr/power.h ****   <tr>
 222:/usr/lib/avr/include/avr/power.h ****     <td>power_ram3_enable()</td>
 223:/usr/lib/avr/include/avr/power.h ****     <td>Enable the SRAM block 3 .</td>
 224:/usr/lib/avr/include/avr/power.h ****   </tr>
 225:/usr/lib/avr/include/avr/power.h **** 
 226:/usr/lib/avr/include/avr/power.h ****   <tr>
 227:/usr/lib/avr/include/avr/power.h ****     <td>power_ram3_disable()</td>
 228:/usr/lib/avr/include/avr/power.h ****     <td>Disable the SRAM block 3. </td>
 229:/usr/lib/avr/include/avr/power.h ****   </tr>
 230:/usr/lib/avr/include/avr/power.h **** 
 231:/usr/lib/avr/include/avr/power.h ****   <tr>
 232:/usr/lib/avr/include/avr/power.h ****     <td>power_rtc_disable()</td>
 233:/usr/lib/avr/include/avr/power.h ****     <td>Disable the RTC module</td>
 234:/usr/lib/avr/include/avr/power.h ****   </tr>
 235:/usr/lib/avr/include/avr/power.h **** 
 236:/usr/lib/avr/include/avr/power.h ****   <tr>
 237:/usr/lib/avr/include/avr/power.h ****     <td>power_rtc_enable()</td>
 238:/usr/lib/avr/include/avr/power.h ****     <td>Enable the RTC module</td>
 239:/usr/lib/avr/include/avr/power.h ****   </tr>
 240:/usr/lib/avr/include/avr/power.h **** 
 241:/usr/lib/avr/include/avr/power.h ****   <tr>
 242:/usr/lib/avr/include/avr/power.h ****     <td>power_spi_enable()</td>
 243:/usr/lib/avr/include/avr/power.h ****     <td>Enable the Serial Peripheral Interface module.</td>
 244:/usr/lib/avr/include/avr/power.h ****   </tr>
 245:/usr/lib/avr/include/avr/power.h **** 
 246:/usr/lib/avr/include/avr/power.h ****   <tr>
 247:/usr/lib/avr/include/avr/power.h ****     <td>power_spi_disable()</td>
 248:/usr/lib/avr/include/avr/power.h ****     <td>Disable the Serial Peripheral Interface module.</td>
 249:/usr/lib/avr/include/avr/power.h ****   </tr>
 250:/usr/lib/avr/include/avr/power.h **** 
 251:/usr/lib/avr/include/avr/power.h ****   <tr>
 252:/usr/lib/avr/include/avr/power.h ****     <td>power_spic_disable()</td>
 253:/usr/lib/avr/include/avr/power.h ****     <td>Disable the SPI module on PortC</td>
 254:/usr/lib/avr/include/avr/power.h ****   </tr>
 255:/usr/lib/avr/include/avr/power.h **** 
 256:/usr/lib/avr/include/avr/power.h ****   <tr>
 257:/usr/lib/avr/include/avr/power.h ****     <td>power_spic_enable()</td>
 258:/usr/lib/avr/include/avr/power.h ****     <td>Enable the SPI module on PortC</td>
 259:/usr/lib/avr/include/avr/power.h ****   </tr>
 260:/usr/lib/avr/include/avr/power.h **** 
 261:/usr/lib/avr/include/avr/power.h ****   <tr>
 262:/usr/lib/avr/include/avr/power.h ****     <td>power_spid_disable()</td>
 263:/usr/lib/avr/include/avr/power.h ****     <td>Disable the SPI module on PortD</td>
 264:/usr/lib/avr/include/avr/power.h ****   </tr>
 265:/usr/lib/avr/include/avr/power.h **** 
 266:/usr/lib/avr/include/avr/power.h ****   <tr>
 267:/usr/lib/avr/include/avr/power.h ****     <td>power_spid_enable()</td>
 268:/usr/lib/avr/include/avr/power.h ****     <td>Enable the SPI module on PortD</td>
 269:/usr/lib/avr/include/avr/power.h ****   </tr>
 270:/usr/lib/avr/include/avr/power.h **** 
 271:/usr/lib/avr/include/avr/power.h ****   <tr>
 272:/usr/lib/avr/include/avr/power.h ****     <td>power_tc0c_disable()</td>
 273:/usr/lib/avr/include/avr/power.h ****     <td>Disable the TC0 module on PortC</td>
 274:/usr/lib/avr/include/avr/power.h ****   </tr>
 275:/usr/lib/avr/include/avr/power.h **** 
 276:/usr/lib/avr/include/avr/power.h ****   <tr>
 277:/usr/lib/avr/include/avr/power.h ****     <td>power_tc0c_enable()</td>
 278:/usr/lib/avr/include/avr/power.h ****     <td>Enable the TC0 module on PortC</td>
 279:/usr/lib/avr/include/avr/power.h ****   </tr>
 280:/usr/lib/avr/include/avr/power.h **** 
 281:/usr/lib/avr/include/avr/power.h ****   <tr>
 282:/usr/lib/avr/include/avr/power.h ****     <td>power_tc0d_disable()</td>
 283:/usr/lib/avr/include/avr/power.h ****     <td>Disable the TC0 module on PortD</td>
 284:/usr/lib/avr/include/avr/power.h ****   </tr>
 285:/usr/lib/avr/include/avr/power.h **** 
 286:/usr/lib/avr/include/avr/power.h ****   <tr>
 287:/usr/lib/avr/include/avr/power.h ****     <td>power_tc0d_enable()</td>
 288:/usr/lib/avr/include/avr/power.h ****     <td>Enable the TC0 module on PortD</td>
 289:/usr/lib/avr/include/avr/power.h ****   </tr>
 290:/usr/lib/avr/include/avr/power.h **** 
 291:/usr/lib/avr/include/avr/power.h ****   <tr>
 292:/usr/lib/avr/include/avr/power.h ****     <td>power_tc0e_disable()</td>
 293:/usr/lib/avr/include/avr/power.h ****     <td>Disable the TC0 module on PortE</td>
 294:/usr/lib/avr/include/avr/power.h ****   </tr>
 295:/usr/lib/avr/include/avr/power.h **** 
 296:/usr/lib/avr/include/avr/power.h ****   <tr>
 297:/usr/lib/avr/include/avr/power.h ****     <td>power_tc0e_enable()</td>
 298:/usr/lib/avr/include/avr/power.h ****     <td>Enable the TC0 module on PortE</td>
 299:/usr/lib/avr/include/avr/power.h ****   </tr>
 300:/usr/lib/avr/include/avr/power.h **** 
 301:/usr/lib/avr/include/avr/power.h ****   <tr>
 302:/usr/lib/avr/include/avr/power.h ****     <td>power_tc0f_disable()</td>
 303:/usr/lib/avr/include/avr/power.h ****     <td>Disable the TC0 module on PortF</td>
 304:/usr/lib/avr/include/avr/power.h ****   </tr>
 305:/usr/lib/avr/include/avr/power.h **** 
 306:/usr/lib/avr/include/avr/power.h ****   <tr>
 307:/usr/lib/avr/include/avr/power.h ****     <td>power_tc0f_enable()</td>
 308:/usr/lib/avr/include/avr/power.h ****     <td>Enable the TC0 module on PortF</td>
 309:/usr/lib/avr/include/avr/power.h ****   </tr>
 310:/usr/lib/avr/include/avr/power.h **** 
 311:/usr/lib/avr/include/avr/power.h ****   <tr>
 312:/usr/lib/avr/include/avr/power.h ****     <td>power_tc1c_disable()</td>
 313:/usr/lib/avr/include/avr/power.h ****     <td>Disable the TC1 module on PortC</td>
 314:/usr/lib/avr/include/avr/power.h ****   </tr>
 315:/usr/lib/avr/include/avr/power.h **** 
 316:/usr/lib/avr/include/avr/power.h ****   <tr>
 317:/usr/lib/avr/include/avr/power.h ****     <td>power_tc1c_enable()</td>
 318:/usr/lib/avr/include/avr/power.h ****     <td>Enable the TC1 module on PortC</td>
 319:/usr/lib/avr/include/avr/power.h ****   </tr>
 320:/usr/lib/avr/include/avr/power.h **** 
 321:/usr/lib/avr/include/avr/power.h ****   <tr>
 322:/usr/lib/avr/include/avr/power.h ****     <td>power_twic_disable()</td>
 323:/usr/lib/avr/include/avr/power.h ****     <td>Disable the Two Wire Interface module on PortC</td>
 324:/usr/lib/avr/include/avr/power.h ****   </tr>
 325:/usr/lib/avr/include/avr/power.h **** 
 326:/usr/lib/avr/include/avr/power.h ****   <tr>
 327:/usr/lib/avr/include/avr/power.h ****     <td>power_twic_enable()</td>
 328:/usr/lib/avr/include/avr/power.h ****     <td>Enable the Two Wire Interface module on PortC</td>
 329:/usr/lib/avr/include/avr/power.h ****   </tr>
 330:/usr/lib/avr/include/avr/power.h **** 
 331:/usr/lib/avr/include/avr/power.h ****   <tr>
 332:/usr/lib/avr/include/avr/power.h ****     <td>power_twie_disable()</td>
 333:/usr/lib/avr/include/avr/power.h ****     <td>Disable the Two Wire Interface module on PortE</td>
 334:/usr/lib/avr/include/avr/power.h ****   </tr>
 335:/usr/lib/avr/include/avr/power.h **** 
 336:/usr/lib/avr/include/avr/power.h ****   <tr>
 337:/usr/lib/avr/include/avr/power.h ****     <td>power_twie_enable()</td>
 338:/usr/lib/avr/include/avr/power.h ****     <td>Enable the Two Wire Interface module on PortE</td>
 339:/usr/lib/avr/include/avr/power.h ****   </tr>
 340:/usr/lib/avr/include/avr/power.h **** 
 341:/usr/lib/avr/include/avr/power.h ****   <tr>
 342:/usr/lib/avr/include/avr/power.h ****     <td>power_timer0_enable()</td>
 343:/usr/lib/avr/include/avr/power.h ****     <td>Enable the Timer 0 module.</td>
 344:/usr/lib/avr/include/avr/power.h ****   </tr>
 345:/usr/lib/avr/include/avr/power.h **** 
 346:/usr/lib/avr/include/avr/power.h ****   <tr>
 347:/usr/lib/avr/include/avr/power.h ****     <td>power_timer0_disable()</td>
 348:/usr/lib/avr/include/avr/power.h ****     <td>Disable the Timer 0 module.</td>
 349:/usr/lib/avr/include/avr/power.h ****   </tr>
 350:/usr/lib/avr/include/avr/power.h **** 
 351:/usr/lib/avr/include/avr/power.h ****   <tr>
 352:/usr/lib/avr/include/avr/power.h ****     <td>power_timer1_enable()</td>
 353:/usr/lib/avr/include/avr/power.h ****     <td>Enable the Timer 1 module.</td>
 354:/usr/lib/avr/include/avr/power.h ****   </tr>
 355:/usr/lib/avr/include/avr/power.h **** 
 356:/usr/lib/avr/include/avr/power.h ****   <tr>
 357:/usr/lib/avr/include/avr/power.h ****     <td>power_timer1_disable()</td>
 358:/usr/lib/avr/include/avr/power.h ****     <td>Disable the Timer 1 module.</td>
 359:/usr/lib/avr/include/avr/power.h ****   </tr>
 360:/usr/lib/avr/include/avr/power.h **** 
 361:/usr/lib/avr/include/avr/power.h ****   <tr>
 362:/usr/lib/avr/include/avr/power.h ****     <td>power_timer2_enable()</td>
 363:/usr/lib/avr/include/avr/power.h ****     <td>Enable the Timer 2 module.</td>
 364:/usr/lib/avr/include/avr/power.h ****   </tr>
 365:/usr/lib/avr/include/avr/power.h **** 
 366:/usr/lib/avr/include/avr/power.h ****   <tr>
 367:/usr/lib/avr/include/avr/power.h ****     <td>power_timer2_disable()</td>
 368:/usr/lib/avr/include/avr/power.h ****     <td>Disable the Timer 2 module.</td>
 369:/usr/lib/avr/include/avr/power.h ****   </tr>
 370:/usr/lib/avr/include/avr/power.h **** 
 371:/usr/lib/avr/include/avr/power.h ****   <tr>
 372:/usr/lib/avr/include/avr/power.h ****     <td>power_timer3_enable()</td>
 373:/usr/lib/avr/include/avr/power.h ****     <td>Enable the Timer 3 module.</td>
 374:/usr/lib/avr/include/avr/power.h ****   </tr>
 375:/usr/lib/avr/include/avr/power.h **** 
 376:/usr/lib/avr/include/avr/power.h ****   <tr>
 377:/usr/lib/avr/include/avr/power.h ****     <td>power_timer3_disable()</td>
 378:/usr/lib/avr/include/avr/power.h ****     <td>Disable the Timer 3 module.</td>
 379:/usr/lib/avr/include/avr/power.h ****   </tr>
 380:/usr/lib/avr/include/avr/power.h **** 
 381:/usr/lib/avr/include/avr/power.h ****   <tr>
 382:/usr/lib/avr/include/avr/power.h ****     <td>power_timer4_enable()</td>
 383:/usr/lib/avr/include/avr/power.h ****     <td>Enable the Timer 4 module.</td>
 384:/usr/lib/avr/include/avr/power.h ****   </tr>
 385:/usr/lib/avr/include/avr/power.h **** 
 386:/usr/lib/avr/include/avr/power.h ****   <tr>
 387:/usr/lib/avr/include/avr/power.h ****     <td>power_timer4_disable()</td>
 388:/usr/lib/avr/include/avr/power.h ****     <td>Disable the Timer 4 module.</td>
 389:/usr/lib/avr/include/avr/power.h ****   </tr>
 390:/usr/lib/avr/include/avr/power.h **** 
 391:/usr/lib/avr/include/avr/power.h ****   <tr>
 392:/usr/lib/avr/include/avr/power.h ****     <td>power_timer5_enable()</td>
 393:/usr/lib/avr/include/avr/power.h ****     <td>Enable the Timer 5 module.</td>
 394:/usr/lib/avr/include/avr/power.h ****   </tr>
 395:/usr/lib/avr/include/avr/power.h **** 
 396:/usr/lib/avr/include/avr/power.h ****   <tr>
 397:/usr/lib/avr/include/avr/power.h ****     <td>power_timer5_disable()</td>
 398:/usr/lib/avr/include/avr/power.h ****     <td>Disable the Timer 5 module.</td>
 399:/usr/lib/avr/include/avr/power.h ****   </tr>
 400:/usr/lib/avr/include/avr/power.h **** 
 401:/usr/lib/avr/include/avr/power.h ****   <tr>
 402:/usr/lib/avr/include/avr/power.h ****     <td>power_twi_enable()</td>
 403:/usr/lib/avr/include/avr/power.h ****     <td>Enable the Two Wire Interface module.</td>
 404:/usr/lib/avr/include/avr/power.h ****   </tr>
 405:/usr/lib/avr/include/avr/power.h **** 
 406:/usr/lib/avr/include/avr/power.h ****   <tr>
 407:/usr/lib/avr/include/avr/power.h ****     <td>power_twi_disable()</td>
 408:/usr/lib/avr/include/avr/power.h ****     <td>Disable the Two Wire Interface module.</td>
 409:/usr/lib/avr/include/avr/power.h ****   </tr>
 410:/usr/lib/avr/include/avr/power.h **** 
 411:/usr/lib/avr/include/avr/power.h ****   <tr>
 412:/usr/lib/avr/include/avr/power.h ****     <td>power_usart_enable()</td>
 413:/usr/lib/avr/include/avr/power.h ****     <td>Enable the USART module.</td>
 414:/usr/lib/avr/include/avr/power.h ****   </tr>
 415:/usr/lib/avr/include/avr/power.h **** 
 416:/usr/lib/avr/include/avr/power.h ****   <tr>
 417:/usr/lib/avr/include/avr/power.h ****     <td>power_usart_disable()</td>
 418:/usr/lib/avr/include/avr/power.h ****     <td>Disable the USART module.</td>
 419:/usr/lib/avr/include/avr/power.h ****   </tr>
 420:/usr/lib/avr/include/avr/power.h **** 
 421:/usr/lib/avr/include/avr/power.h ****   <tr>
 422:/usr/lib/avr/include/avr/power.h ****     <td>power_usart0_enable()</td>
 423:/usr/lib/avr/include/avr/power.h ****     <td>Enable the USART 0 module.</td>
 424:/usr/lib/avr/include/avr/power.h ****   </tr>
 425:/usr/lib/avr/include/avr/power.h **** 
 426:/usr/lib/avr/include/avr/power.h ****   <tr>
 427:/usr/lib/avr/include/avr/power.h ****     <td>power_usart0_disable()</td>
 428:/usr/lib/avr/include/avr/power.h ****     <td>Disable the USART 0 module.</td>
 429:/usr/lib/avr/include/avr/power.h ****   </tr>
 430:/usr/lib/avr/include/avr/power.h **** 
 431:/usr/lib/avr/include/avr/power.h ****   <tr>
 432:/usr/lib/avr/include/avr/power.h ****     <td>power_usart1_enable()</td>
 433:/usr/lib/avr/include/avr/power.h ****     <td>Enable the USART 1 module.</td>
 434:/usr/lib/avr/include/avr/power.h ****   </tr>
 435:/usr/lib/avr/include/avr/power.h **** 
 436:/usr/lib/avr/include/avr/power.h ****   <tr>
 437:/usr/lib/avr/include/avr/power.h ****     <td>power_usart1_disable()</td>
 438:/usr/lib/avr/include/avr/power.h ****     <td>Disable the USART 1 module.</td>
 439:/usr/lib/avr/include/avr/power.h ****   </tr>
 440:/usr/lib/avr/include/avr/power.h **** 
 441:/usr/lib/avr/include/avr/power.h ****   <tr>
 442:/usr/lib/avr/include/avr/power.h ****     <td>power_usart2_enable()</td>
 443:/usr/lib/avr/include/avr/power.h ****     <td>Enable the USART 2 module.</td>
 444:/usr/lib/avr/include/avr/power.h ****   </tr>
 445:/usr/lib/avr/include/avr/power.h **** 
 446:/usr/lib/avr/include/avr/power.h ****   <tr>
 447:/usr/lib/avr/include/avr/power.h ****     <td>power_usart2_disable()</td>
 448:/usr/lib/avr/include/avr/power.h ****     <td>Disable the USART 2 module.</td>
 449:/usr/lib/avr/include/avr/power.h ****   </tr>
 450:/usr/lib/avr/include/avr/power.h **** 
 451:/usr/lib/avr/include/avr/power.h ****   <tr>
 452:/usr/lib/avr/include/avr/power.h ****     <td>power_usart3_enable()</td>
 453:/usr/lib/avr/include/avr/power.h ****     <td>Enable the USART 3 module.</td>
 454:/usr/lib/avr/include/avr/power.h ****   </tr>
 455:/usr/lib/avr/include/avr/power.h **** 
 456:/usr/lib/avr/include/avr/power.h ****   <tr>
 457:/usr/lib/avr/include/avr/power.h ****     <td>power_usart3_disable()</td>
 458:/usr/lib/avr/include/avr/power.h ****     <td>Disable the USART 3 module.</td>
 459:/usr/lib/avr/include/avr/power.h ****   </tr>
 460:/usr/lib/avr/include/avr/power.h **** 
 461:/usr/lib/avr/include/avr/power.h ****   <tr>
 462:/usr/lib/avr/include/avr/power.h ****     <td>power_usartc0_disable()</td>
 463:/usr/lib/avr/include/avr/power.h ****     <td> Disable the USART0 module on PortC</td>
 464:/usr/lib/avr/include/avr/power.h ****   </tr>
 465:/usr/lib/avr/include/avr/power.h **** 
 466:/usr/lib/avr/include/avr/power.h ****   <tr>
 467:/usr/lib/avr/include/avr/power.h ****     <td>power_usartc0_enable()</td>
 468:/usr/lib/avr/include/avr/power.h ****     <td> Enable the USART0 module on PortC</td>
 469:/usr/lib/avr/include/avr/power.h ****   </tr>
 470:/usr/lib/avr/include/avr/power.h **** 
 471:/usr/lib/avr/include/avr/power.h ****   <tr>
 472:/usr/lib/avr/include/avr/power.h ****     <td>power_usartd0_disable()</td>
 473:/usr/lib/avr/include/avr/power.h ****     <td> Disable the USART0 module on PortD</td>
 474:/usr/lib/avr/include/avr/power.h ****   </tr>
 475:/usr/lib/avr/include/avr/power.h **** 
 476:/usr/lib/avr/include/avr/power.h ****   <tr>
 477:/usr/lib/avr/include/avr/power.h ****     <td>power_usartd0_enable()</td>
 478:/usr/lib/avr/include/avr/power.h ****     <td> Enable the USART0 module on PortD</td>
 479:/usr/lib/avr/include/avr/power.h ****   </tr>
 480:/usr/lib/avr/include/avr/power.h **** 
 481:/usr/lib/avr/include/avr/power.h ****   <tr>
 482:/usr/lib/avr/include/avr/power.h ****     <td>power_usarte0_disable()</td>
 483:/usr/lib/avr/include/avr/power.h ****     <td> Disable the USART0 module on PortE</td>
 484:/usr/lib/avr/include/avr/power.h ****   </tr>
 485:/usr/lib/avr/include/avr/power.h **** 
 486:/usr/lib/avr/include/avr/power.h ****   <tr>
 487:/usr/lib/avr/include/avr/power.h ****     <td>power_usarte0_enable()</td>
 488:/usr/lib/avr/include/avr/power.h ****     <td> Enable the USART0 module on PortE</td>
 489:/usr/lib/avr/include/avr/power.h ****   </tr>
 490:/usr/lib/avr/include/avr/power.h **** 
 491:/usr/lib/avr/include/avr/power.h ****   <tr>
 492:/usr/lib/avr/include/avr/power.h ****     <td>power_usartf0_disable()</td>
 493:/usr/lib/avr/include/avr/power.h ****     <td> Disable the USART0 module on PortF</td>
 494:/usr/lib/avr/include/avr/power.h ****   </tr>
 495:/usr/lib/avr/include/avr/power.h **** 
 496:/usr/lib/avr/include/avr/power.h ****   <tr>
 497:/usr/lib/avr/include/avr/power.h ****     <td>power_usartf0_enable()</td>
 498:/usr/lib/avr/include/avr/power.h ****     <td> Enable the USART0 module on PortF</td>
 499:/usr/lib/avr/include/avr/power.h ****   </tr>
 500:/usr/lib/avr/include/avr/power.h **** 
 501:/usr/lib/avr/include/avr/power.h ****   <tr>
 502:/usr/lib/avr/include/avr/power.h ****     <td>power_usb_enable()</td>
 503:/usr/lib/avr/include/avr/power.h ****     <td>Enable the USB module.</td>
 504:/usr/lib/avr/include/avr/power.h ****   </tr>
 505:/usr/lib/avr/include/avr/power.h **** 
 506:/usr/lib/avr/include/avr/power.h ****   <tr>
 507:/usr/lib/avr/include/avr/power.h ****     <td>power_usb_disable()</td>
 508:/usr/lib/avr/include/avr/power.h ****     <td>Disable the USB module.</td>
 509:/usr/lib/avr/include/avr/power.h ****   </tr>
 510:/usr/lib/avr/include/avr/power.h **** 
 511:/usr/lib/avr/include/avr/power.h ****   <tr>
 512:/usr/lib/avr/include/avr/power.h ****     <td>power_usi_enable()</td>
 513:/usr/lib/avr/include/avr/power.h ****     <td>Enable the Universal Serial Interface module.</td>
 514:/usr/lib/avr/include/avr/power.h ****   </tr>
 515:/usr/lib/avr/include/avr/power.h **** 
 516:/usr/lib/avr/include/avr/power.h ****   <tr>
 517:/usr/lib/avr/include/avr/power.h ****     <td>power_usi_disable()</td>
 518:/usr/lib/avr/include/avr/power.h ****     <td>Disable the Universal Serial Interface module.</td>
 519:/usr/lib/avr/include/avr/power.h ****   </tr>
 520:/usr/lib/avr/include/avr/power.h **** 
 521:/usr/lib/avr/include/avr/power.h ****   <tr>
 522:/usr/lib/avr/include/avr/power.h ****     <td>power_vadc_enable()</td>
 523:/usr/lib/avr/include/avr/power.h ****     <td>Enable the Voltage ADC module.</td>
 524:/usr/lib/avr/include/avr/power.h ****   </tr>
 525:/usr/lib/avr/include/avr/power.h **** 
 526:/usr/lib/avr/include/avr/power.h ****   <tr>
 527:/usr/lib/avr/include/avr/power.h ****     <td>power_vadc_disable()</td>
 528:/usr/lib/avr/include/avr/power.h ****     <td>Disable the Voltage ADC module.</td>
 529:/usr/lib/avr/include/avr/power.h ****   </tr>
 530:/usr/lib/avr/include/avr/power.h **** 
 531:/usr/lib/avr/include/avr/power.h ****   <tr>
 532:/usr/lib/avr/include/avr/power.h ****     <td>power_all_enable()</td>
 533:/usr/lib/avr/include/avr/power.h ****     <td>Enable all modules.</td>
 534:/usr/lib/avr/include/avr/power.h ****   </tr>
 535:/usr/lib/avr/include/avr/power.h **** 
 536:/usr/lib/avr/include/avr/power.h ****   <tr>
 537:/usr/lib/avr/include/avr/power.h ****     <td>power_all_disable()</td>
 538:/usr/lib/avr/include/avr/power.h ****     <td>Disable all modules.</td>
 539:/usr/lib/avr/include/avr/power.h ****   </tr>
 540:/usr/lib/avr/include/avr/power.h **** </table>
 541:/usr/lib/avr/include/avr/power.h **** </center>
 542:/usr/lib/avr/include/avr/power.h **** </small>
 543:/usr/lib/avr/include/avr/power.h **** 
 544:/usr/lib/avr/include/avr/power.h **** @} */
 545:/usr/lib/avr/include/avr/power.h **** 
 546:/usr/lib/avr/include/avr/power.h **** #if defined(__AVR_HAVE_PRR_PRADC)
 547:/usr/lib/avr/include/avr/power.h **** #define power_adc_enable()      (PRR &= (uint8_t)~(1 << PRADC))
 548:/usr/lib/avr/include/avr/power.h **** #define power_adc_disable()     (PRR |= (uint8_t)(1 << PRADC))
 549:/usr/lib/avr/include/avr/power.h **** #endif
 550:/usr/lib/avr/include/avr/power.h **** 
 551:/usr/lib/avr/include/avr/power.h **** #if defined(__AVR_HAVE_PRR_PRCAN)
 552:/usr/lib/avr/include/avr/power.h **** #define power_can_enable()      (PRR &= (uint8_t)~(1 << PRCAN))
 553:/usr/lib/avr/include/avr/power.h **** #define power_can_disable()     (PRR |= (uint8_t)(1 << PRCAN))
 554:/usr/lib/avr/include/avr/power.h **** #endif
 555:/usr/lib/avr/include/avr/power.h **** 
 556:/usr/lib/avr/include/avr/power.h **** #if defined(__AVR_HAVE_PRR_PRLCD)
 557:/usr/lib/avr/include/avr/power.h **** #define power_lcd_enable()      (PRR &= (uint8_t)~(1 << PRLCD))
 558:/usr/lib/avr/include/avr/power.h **** #define power_lcd_disable()     (PRR |= (uint8_t)(1 << PRLCD))
 559:/usr/lib/avr/include/avr/power.h **** #endif
 560:/usr/lib/avr/include/avr/power.h **** 
 561:/usr/lib/avr/include/avr/power.h **** #if defined(__AVR_HAVE_PRR_PRLIN)
 562:/usr/lib/avr/include/avr/power.h **** #define power_lin_enable()      (PRR &= (uint8_t)~(1 << PRLIN))
 563:/usr/lib/avr/include/avr/power.h **** #define power_lin_disable()     (PRR |= (uint8_t)(1 << PRLIN))
 564:/usr/lib/avr/include/avr/power.h **** #endif
 565:/usr/lib/avr/include/avr/power.h **** 
 566:/usr/lib/avr/include/avr/power.h **** #if defined(__AVR_HAVE_PRR_PRPSC)
 567:/usr/lib/avr/include/avr/power.h **** #define power_psc_enable()      (PRR &= (uint8_t)~(1 << PRPSC))
 568:/usr/lib/avr/include/avr/power.h **** #define power_psc_disable()     (PRR |= (uint8_t)(1 << PRPSC))
 569:/usr/lib/avr/include/avr/power.h **** #endif
 570:/usr/lib/avr/include/avr/power.h **** 
 571:/usr/lib/avr/include/avr/power.h **** #if defined(__AVR_HAVE_PRR_PRPSC0)
 572:/usr/lib/avr/include/avr/power.h **** #define power_psc0_enable()     (PRR &= (uint8_t)~(1 << PRPSC0))
 573:/usr/lib/avr/include/avr/power.h **** #define power_psc0_disable()    (PRR |= (uint8_t)(1 << PRPSC0))
 574:/usr/lib/avr/include/avr/power.h **** #endif
 575:/usr/lib/avr/include/avr/power.h **** 
 576:/usr/lib/avr/include/avr/power.h **** #if defined(__AVR_HAVE_PRR_PRPSC1)
 577:/usr/lib/avr/include/avr/power.h **** #define power_psc1_enable()     (PRR &= (uint8_t)~(1 << PRPSC1))
 578:/usr/lib/avr/include/avr/power.h **** #define power_psc1_disable()    (PRR |= (uint8_t)(1 << PRPSC1))
 579:/usr/lib/avr/include/avr/power.h **** #endif
 580:/usr/lib/avr/include/avr/power.h **** 
 581:/usr/lib/avr/include/avr/power.h **** #if defined(__AVR_HAVE_PRR_PRPSC2)
 582:/usr/lib/avr/include/avr/power.h **** #define power_psc2_enable()     (PRR &= (uint8_t)~(1 << PRPSC2))
 583:/usr/lib/avr/include/avr/power.h **** #define power_psc2_disable()    (PRR |= (uint8_t)(1 << PRPSC2))
 584:/usr/lib/avr/include/avr/power.h **** #endif
 585:/usr/lib/avr/include/avr/power.h **** 
 586:/usr/lib/avr/include/avr/power.h **** #if defined(__AVR_HAVE_PRR_PRSCR)
 587:/usr/lib/avr/include/avr/power.h **** #define power_pscr_enable()     (PRR &= (uint8_t)~(1 << PRPSCR))
 588:/usr/lib/avr/include/avr/power.h **** #define power_pscr_disable()    (PRR |= (uint8_t)(1 << PRPSCR))
 589:/usr/lib/avr/include/avr/power.h **** #endif
 590:/usr/lib/avr/include/avr/power.h **** 
 591:/usr/lib/avr/include/avr/power.h **** #if defined(__AVR_HAVE_PRR_PRSPI)
 592:/usr/lib/avr/include/avr/power.h **** #define power_spi_enable()      (PRR &= (uint8_t)~(1 << PRSPI))
 593:/usr/lib/avr/include/avr/power.h **** #define power_spi_disable()     (PRR |= (uint8_t)(1 << PRSPI))
 594:/usr/lib/avr/include/avr/power.h **** #endif
 595:/usr/lib/avr/include/avr/power.h **** 
 596:/usr/lib/avr/include/avr/power.h **** #if defined(__AVR_HAVE_PRR_PRTIM0)
 597:/usr/lib/avr/include/avr/power.h **** #define power_timer0_enable()   (PRR &= (uint8_t)~(1 << PRTIM0))
 598:/usr/lib/avr/include/avr/power.h **** #define power_timer0_disable()  (PRR |= (uint8_t)(1 << PRTIM0))
 599:/usr/lib/avr/include/avr/power.h **** #endif
 600:/usr/lib/avr/include/avr/power.h **** 
 601:/usr/lib/avr/include/avr/power.h **** #if defined(__AVR_HAVE_PRR_PRTIM1)
 602:/usr/lib/avr/include/avr/power.h **** #define power_timer1_enable()   (PRR &= (uint8_t)~(1 << PRTIM1))
 603:/usr/lib/avr/include/avr/power.h **** #define power_timer1_disable()  (PRR |= (uint8_t)(1 << PRTIM1))
 604:/usr/lib/avr/include/avr/power.h **** #endif
 605:/usr/lib/avr/include/avr/power.h **** 
 606:/usr/lib/avr/include/avr/power.h **** #if defined(__AVR_HAVE_PRR_PRTIM2)
 607:/usr/lib/avr/include/avr/power.h **** #define power_timer2_enable()   (PRR &= (uint8_t)~(1 << PRTIM2))
 608:/usr/lib/avr/include/avr/power.h **** #define power_timer2_disable()  (PRR |= (uint8_t)(1 << PRTIM2))
 609:/usr/lib/avr/include/avr/power.h **** #endif
 610:/usr/lib/avr/include/avr/power.h **** 
 611:/usr/lib/avr/include/avr/power.h **** #if defined(__AVR_HAVE_PRR_PRTWI)
 612:/usr/lib/avr/include/avr/power.h **** #define power_twi_enable()      (PRR &= (uint8_t)~(1 << PRTWI))
 613:/usr/lib/avr/include/avr/power.h **** #define power_twi_disable()     (PRR |= (uint8_t)(1 << PRTWI))
 614:/usr/lib/avr/include/avr/power.h **** #endif
 615:/usr/lib/avr/include/avr/power.h **** 
 616:/usr/lib/avr/include/avr/power.h **** #if defined(__AVR_HAVE_PRR_PRUSART)
 617:/usr/lib/avr/include/avr/power.h **** #define power_usart_enable()    (PRR &= (uint8_t)~(1 << PRUSART))
 618:/usr/lib/avr/include/avr/power.h **** #define power_usart_disable()   (PRR |= (uint8_t)(1 << PRUSART))
 619:/usr/lib/avr/include/avr/power.h **** #endif
 620:/usr/lib/avr/include/avr/power.h **** 
 621:/usr/lib/avr/include/avr/power.h **** #if defined(__AVR_HAVE_PRR_PRUSART0)
 622:/usr/lib/avr/include/avr/power.h **** #define power_usart0_enable()   (PRR &= (uint8_t)~(1 << PRUSART0))
 623:/usr/lib/avr/include/avr/power.h **** #define power_usart0_disable()  (PRR |= (uint8_t)(1 << PRUSART0))
 624:/usr/lib/avr/include/avr/power.h **** #endif
 625:/usr/lib/avr/include/avr/power.h **** 
 626:/usr/lib/avr/include/avr/power.h **** #if defined(__AVR_HAVE_PRR_PRUSART1)
 627:/usr/lib/avr/include/avr/power.h **** #define power_usart1_enable()   (PRR &= (uint8_t)~(1 << PRUSART1))
 628:/usr/lib/avr/include/avr/power.h **** #define power_usart1_disable()  (PRR |= (uint8_t)(1 << PRUSART1))
 629:/usr/lib/avr/include/avr/power.h **** #endif
 630:/usr/lib/avr/include/avr/power.h **** 
 631:/usr/lib/avr/include/avr/power.h **** #if defined(__AVR_HAVE_PRR_PRUSI)
 632:/usr/lib/avr/include/avr/power.h **** #define power_usi_enable()      (PRR &= (uint8_t)~(1 << PRUSI))
 633:/usr/lib/avr/include/avr/power.h **** #define power_usi_disable()     (PRR |= (uint8_t)(1 << PRUSI))
 634:/usr/lib/avr/include/avr/power.h **** #endif
 635:/usr/lib/avr/include/avr/power.h **** 
 636:/usr/lib/avr/include/avr/power.h **** #if defined(__AVR_HAVE_PRR0_PRADC)
 637:/usr/lib/avr/include/avr/power.h **** #define power_adc_enable()      (PRR0 &= (uint8_t)~(1 << PRADC))
 638:/usr/lib/avr/include/avr/power.h **** #define power_adc_disable()     (PRR0 |= (uint8_t)(1 << PRADC))
 639:/usr/lib/avr/include/avr/power.h **** #endif
 640:/usr/lib/avr/include/avr/power.h **** 
 641:/usr/lib/avr/include/avr/power.h **** #if defined(__AVR_HAVE_PRR0_PRC0)
 642:/usr/lib/avr/include/avr/power.h **** #define power_clock_output_enable()     (PRR0 &= (uint8_t)~(1 << PRCO))
 643:/usr/lib/avr/include/avr/power.h **** #define power_clock_output_disable()    (PRR0 |= (uint8_t)(1 << PRCO))
 644:/usr/lib/avr/include/avr/power.h **** #endif
 645:/usr/lib/avr/include/avr/power.h **** 
 646:/usr/lib/avr/include/avr/power.h **** #if defined(__AVR_HAVE_PRR0_PRCRC)
 647:/usr/lib/avr/include/avr/power.h **** #define power_crc_enable()              (PRR0 &= (uint8_t)~(1 << PRCRC))
 648:/usr/lib/avr/include/avr/power.h **** #define power_crc_disable()             (PRR0 |= (uint8_t)(1 << PRCRC))
 649:/usr/lib/avr/include/avr/power.h **** #endif
 650:/usr/lib/avr/include/avr/power.h **** 
 651:/usr/lib/avr/include/avr/power.h **** #if defined(__AVR_HAVE_PRR0_PRCU)
 652:/usr/lib/avr/include/avr/power.h **** #define power_crypto_enable()           (PRR0 &= (uint8_t)~(1 << PRCU))
 653:/usr/lib/avr/include/avr/power.h **** #define power_crypto_disable()          (PRR0 |= (uint8_t)(1 << PRCU))
 654:/usr/lib/avr/include/avr/power.h **** #endif
 655:/usr/lib/avr/include/avr/power.h **** 
 656:/usr/lib/avr/include/avr/power.h **** #if defined(__AVR_HAVE_PRR0_PRDS)
 657:/usr/lib/avr/include/avr/power.h **** #define power_irdriver_enable()         (PRR0 &= (uint8_t)~(1 << PRDS))
 658:/usr/lib/avr/include/avr/power.h **** #define power_irdriver_disable()        (PRR0 |= (uint8_t)(1 << PRDS))
 659:/usr/lib/avr/include/avr/power.h **** #endif
 660:/usr/lib/avr/include/avr/power.h **** 
 661:/usr/lib/avr/include/avr/power.h **** #if defined(__AVR_HAVE_PRR0_PRLFR)
 662:/usr/lib/avr/include/avr/power.h **** #define power_lfreceiver_enable()       (PRR0 &= (uint8_t)~(1 << PRLFR))            
 663:/usr/lib/avr/include/avr/power.h **** #define power_lfreceiver_disable()      (PRR0 |= (uint8_t)(1 << PRLFR))            
 664:/usr/lib/avr/include/avr/power.h **** #endif
 665:/usr/lib/avr/include/avr/power.h **** 
 666:/usr/lib/avr/include/avr/power.h **** #if defined(__AVR_HAVE_PRR0_PRLIN)
 667:/usr/lib/avr/include/avr/power.h **** #define power_lin_enable()              (PRR0 &= (uint8_t)~(1 << PRLIN))
 668:/usr/lib/avr/include/avr/power.h **** #define power_lin_disable()             (PRR0 |= (uint8_t)(1 << PRLIN))
 669:/usr/lib/avr/include/avr/power.h **** #endif
 670:/usr/lib/avr/include/avr/power.h **** 
 671:/usr/lib/avr/include/avr/power.h **** #if defined(__AVR_HAVE_PRR0_PRPGA)
 672:/usr/lib/avr/include/avr/power.h **** #define power_pga_enable()              (PRR0 &= (uint8_t)~(1 << PRPGA))
 673:/usr/lib/avr/include/avr/power.h **** #define power_pga_disable()             (PRR0 |= (uint8_t)(1 << PRPGA))
 674:/usr/lib/avr/include/avr/power.h **** #endif
 675:/usr/lib/avr/include/avr/power.h **** 
 676:/usr/lib/avr/include/avr/power.h **** #if defined(__AVR_HAVE_PRR0_PRRXDC)
 677:/usr/lib/avr/include/avr/power.h **** #define power_receive_dsp_control_enable()  (PRR0 &= (uint8_t)~(1 << PRRXDC))
 678:/usr/lib/avr/include/avr/power.h **** #define power_receive_dsp_control_disable() (PRR0 |= (uint8_t)(1 << PRRXDC))
 679:/usr/lib/avr/include/avr/power.h **** #endif
 680:/usr/lib/avr/include/avr/power.h **** 
 681:/usr/lib/avr/include/avr/power.h **** #if defined(__AVR_HAVE_PRR0_PRSPI)
 682:/usr/lib/avr/include/avr/power.h **** #define power_spi_enable()              (PRR0 &= (uint8_t)~(1 << PRSPI))
 683:/usr/lib/avr/include/avr/power.h **** #define power_spi_disable()             (PRR0 |= (uint8_t)(1 << PRSPI))
 684:/usr/lib/avr/include/avr/power.h **** #endif
 685:/usr/lib/avr/include/avr/power.h **** 
 686:/usr/lib/avr/include/avr/power.h **** #if defined(__AVR_HAVE_PRR0_PRT0)
 687:/usr/lib/avr/include/avr/power.h **** #define power_timer0_enable()           (PRR0 &= (uint8_t)~(1 << PRT0))
 688:/usr/lib/avr/include/avr/power.h **** #define power_timer0_disable()          (PRR0 |= (uint8_t)(1 << PRT0))
 689:/usr/lib/avr/include/avr/power.h **** #endif
 690:/usr/lib/avr/include/avr/power.h **** 
 691:/usr/lib/avr/include/avr/power.h **** #if defined(__AVR_HAVE_PRR0_PRTIM0)
 692:/usr/lib/avr/include/avr/power.h **** #define power_timer0_enable()           (PRR0 &= (uint8_t)~(1 << PRTIM0))
 693:/usr/lib/avr/include/avr/power.h **** #define power_timer0_disable()          (PRR0 |= (uint8_t)(1 << PRTIM0))
 694:/usr/lib/avr/include/avr/power.h **** #endif
 695:/usr/lib/avr/include/avr/power.h **** 
 696:/usr/lib/avr/include/avr/power.h **** #if defined(__AVR_HAVE_PRR0_PRT1)
 697:/usr/lib/avr/include/avr/power.h **** #define power_timer1_enable()           (PRR0 &= (uint8_t)~(1 << PRT1))
 698:/usr/lib/avr/include/avr/power.h **** #define power_timer1_disable()          (PRR0 |= (uint8_t)(1 << PRT1))
 699:/usr/lib/avr/include/avr/power.h **** #endif
 700:/usr/lib/avr/include/avr/power.h **** 
 701:/usr/lib/avr/include/avr/power.h **** #if defined(__AVR_HAVE_PRR0_PRTIM1)
 702:/usr/lib/avr/include/avr/power.h **** #define power_timer1_enable()           (PRR0 &= (uint8_t)~(1 << PRTIM1))
 703:/usr/lib/avr/include/avr/power.h **** #define power_timer1_disable()          (PRR0 |= (uint8_t)(1 << PRTIM1))
 704:/usr/lib/avr/include/avr/power.h **** #endif
 705:/usr/lib/avr/include/avr/power.h **** 
 706:/usr/lib/avr/include/avr/power.h **** #if defined(__AVR_HAVE_PRR0_PRT2)
 707:/usr/lib/avr/include/avr/power.h **** #define power_timer2_enable()           (PRR0 &= (uint8_t)~(1 << PRT2))
 708:/usr/lib/avr/include/avr/power.h **** #define power_timer2_disable()          (PRR0 |= (uint8_t)(1 << PRT2))
 709:/usr/lib/avr/include/avr/power.h **** #endif
 710:/usr/lib/avr/include/avr/power.h **** 
 711:/usr/lib/avr/include/avr/power.h **** #if defined(__AVR_HAVE_PRR0_PRTIM2)
 712:/usr/lib/avr/include/avr/power.h **** #define power_timer2_enable()           (PRR0 &= (uint8_t)~(1 << PRTIM2))
 713:/usr/lib/avr/include/avr/power.h **** #define power_timer2_disable()          (PRR0 |= (uint8_t)(1 << PRTIM2))
 714:/usr/lib/avr/include/avr/power.h **** #endif
 715:/usr/lib/avr/include/avr/power.h **** 
 716:/usr/lib/avr/include/avr/power.h **** #if defined(__AVR_HAVE_PRR0_PRT3)
 717:/usr/lib/avr/include/avr/power.h **** #define power_timer3_enable()           (PRR0 &= (uint8_t)~(1 << PRT3))
 718:/usr/lib/avr/include/avr/power.h **** #define power_timer3_disable()          (PRR0 |= (uint8_t)(1 << PRT3))
 719:/usr/lib/avr/include/avr/power.h **** #endif
 720:/usr/lib/avr/include/avr/power.h **** 
 721:/usr/lib/avr/include/avr/power.h **** #if defined(__AVR_HAVE_PRR0_PRTM)
 722:/usr/lib/avr/include/avr/power.h **** #define power_timermodulator_enable()   (PRR0 &= (uint8_t)~(1 << PRTM))
 723:/usr/lib/avr/include/avr/power.h **** #define power_timermodulator_disable()  (PRR0 |= (uint8_t)(1 << PRTM))
 724:/usr/lib/avr/include/avr/power.h **** #endif
 725:/usr/lib/avr/include/avr/power.h **** 
 726:/usr/lib/avr/include/avr/power.h **** #if defined(__AVR_HAVE_PRR0_PRTWI)
 727:/usr/lib/avr/include/avr/power.h **** #define power_twi_enable()              (PRR0 &= (uint8_t)~(1 << PRTWI))
 728:/usr/lib/avr/include/avr/power.h **** #define power_twi_disable()             (PRR0 |= (uint8_t)(1 << PRTWI))
 729:/usr/lib/avr/include/avr/power.h **** #endif
 730:/usr/lib/avr/include/avr/power.h **** 
 731:/usr/lib/avr/include/avr/power.h **** #if defined(__AVR_HAVE_PRR0_PRTXDC)
 732:/usr/lib/avr/include/avr/power.h **** #define power_transmit_dsp_control_enable()   (PRR0 &= (uint8_t)~(1 << PRTXDC))
 733:/usr/lib/avr/include/avr/power.h **** #define power_transmit_dsp_control_disable()  (PRR0 |= (uint8_t)(1 << PRTXDC))
 734:/usr/lib/avr/include/avr/power.h **** #endif
 735:/usr/lib/avr/include/avr/power.h **** 
 736:/usr/lib/avr/include/avr/power.h **** #if defined(__AVR_HAVE_PRR0_PRUSART0)
 737:/usr/lib/avr/include/avr/power.h **** #define power_usart0_enable()           (PRR0 &= (uint8_t)~(1 << PRUSART0))
 738:/usr/lib/avr/include/avr/power.h **** #define power_usart0_disable()          (PRR0 |= (uint8_t)(1 << PRUSART0))
 739:/usr/lib/avr/include/avr/power.h **** #endif
 740:/usr/lib/avr/include/avr/power.h **** 
 741:/usr/lib/avr/include/avr/power.h **** #if defined(__AVR_HAVE_PRR0_PRUSART1)
 742:/usr/lib/avr/include/avr/power.h **** #define power_usart1_enable()           (PRR0 &= (uint8_t)~(1 << PRUSART1))
 743:/usr/lib/avr/include/avr/power.h **** #define power_usart1_disable()          (PRR0 |= (uint8_t)(1 << PRUSART1))
 744:/usr/lib/avr/include/avr/power.h **** #endif
 745:/usr/lib/avr/include/avr/power.h **** 
 746:/usr/lib/avr/include/avr/power.h **** #if defined(__AVR_HAVE_PRR0_PRVADC)
 747:/usr/lib/avr/include/avr/power.h **** #define power_vadc_enable()             (PRR0 &= (uint8_t)~(1 << PRVADC))
 748:/usr/lib/avr/include/avr/power.h **** #define power_vadc_disable()            (PRR0 |= (uint8_t)(1 << PRVADC))
 749:/usr/lib/avr/include/avr/power.h **** #endif
 750:/usr/lib/avr/include/avr/power.h **** 
 751:/usr/lib/avr/include/avr/power.h **** #if defined(__AVR_HAVE_PRR0_PRVM)
 752:/usr/lib/avr/include/avr/power.h **** #define power_voltage_monitor_enable()  (PRR0 &= (uint8_t)~(1 << PRVM))
 753:/usr/lib/avr/include/avr/power.h **** #define power_voltage_monitor_disable() (PRR0 |= (uint8_t)(1 << PRVM))
 754:/usr/lib/avr/include/avr/power.h **** #endif
 755:/usr/lib/avr/include/avr/power.h **** 
 756:/usr/lib/avr/include/avr/power.h **** #if defined(__AVR_HAVE_PRR0_PRVRM)
 757:/usr/lib/avr/include/avr/power.h **** #define power_vrm_enable()              (PRR0 &= (uint8_t)~(1 << PRVRM))
 758:/usr/lib/avr/include/avr/power.h **** #define power_vrm_disable()             (PRR0 |= (uint8_t)(1 << PRVRM))
 759:/usr/lib/avr/include/avr/power.h **** #endif
 760:/usr/lib/avr/include/avr/power.h **** 
 761:/usr/lib/avr/include/avr/power.h **** #if defined(__AVR_HAVE_PRR1_PRAES)
 762:/usr/lib/avr/include/avr/power.h **** #define power_aes_enable()              (PRR1 &= (uint8_t)~(1 << PRAES))
 763:/usr/lib/avr/include/avr/power.h **** #define power_aes_disable()             (PRR1 |= (uint8_t)(1 << PRAES))
 764:/usr/lib/avr/include/avr/power.h **** #endif
 765:/usr/lib/avr/include/avr/power.h **** 
 766:/usr/lib/avr/include/avr/power.h **** #if defined(__AVR_HAVE_PRR1_PRCI)
 767:/usr/lib/avr/include/avr/power.h **** #define power_cinterface_enable()       (PRR1 &= (uint8_t)~(1 << PRCI))
 768:/usr/lib/avr/include/avr/power.h **** #define power_cinterface_disable()      (PRR1 |= (uint8_t)(1 << PRCI))
 769:/usr/lib/avr/include/avr/power.h **** #endif
 770:/usr/lib/avr/include/avr/power.h **** 
 771:/usr/lib/avr/include/avr/power.h **** #if defined(__AVR_HAVE_PRR1_PRHSSPI)
 772:/usr/lib/avr/include/avr/power.h **** #define power_hsspi_enable()            (PRR1 &= (uint8_t)~(1 << PRHSSPI))
 773:/usr/lib/avr/include/avr/power.h **** #define power_hsspi_disable()           (PRR1 |= (uint8_t)(1 << PRHSSPI))
 774:/usr/lib/avr/include/avr/power.h **** #endif
 775:/usr/lib/avr/include/avr/power.h **** 
 776:/usr/lib/avr/include/avr/power.h **** #if defined(__AVR_HAVE_PRR1_PRKB)
 777:/usr/lib/avr/include/avr/power.h **** #define power_kb_enable()               (PRR1 &= (uint8_t)~(1 << PRKB))
 778:/usr/lib/avr/include/avr/power.h **** #define power_kb_disable()              (PRR1 |= (uint8_t)(1 << PRKB))
 779:/usr/lib/avr/include/avr/power.h **** #endif
 780:/usr/lib/avr/include/avr/power.h **** 
 781:/usr/lib/avr/include/avr/power.h **** #if defined(__AVR_HAVE_PRR1_PRLFR)
 782:/usr/lib/avr/include/avr/power.h **** #define power_lfreceiver_enable()       (PRR1 &= (uint8_t)~(1 << PRLFR))            
 783:/usr/lib/avr/include/avr/power.h **** #define power_lfreceiver_disable()      (PRR1 |= (uint8_t)(1 << PRLFR))            
 784:/usr/lib/avr/include/avr/power.h **** #endif
 785:/usr/lib/avr/include/avr/power.h **** 
 786:/usr/lib/avr/include/avr/power.h **** #if defined(__AVR_HAVE_PRR1_PRSCI)
 787:/usr/lib/avr/include/avr/power.h **** #define power_sci_enable()              (PRR1 &= (uint8_t)~(1 << PRSCI))
 788:/usr/lib/avr/include/avr/power.h **** #define power_sci_disable()             (PRR1 |= (uint8_t)(1 << PRSCI))
 789:/usr/lib/avr/include/avr/power.h **** #endif
 790:/usr/lib/avr/include/avr/power.h **** 
 791:/usr/lib/avr/include/avr/power.h **** #if defined(__AVR_HAVE_PRR1_PRT1)
 792:/usr/lib/avr/include/avr/power.h **** #define power_timer1_enable()           (PRR1 &= (uint8_t)~(1 << PRT1))
 793:/usr/lib/avr/include/avr/power.h **** #define power_timer1_disable()          (PRR1 |= (uint8_t)(1 << PRT1))
 794:/usr/lib/avr/include/avr/power.h **** #endif
 795:/usr/lib/avr/include/avr/power.h **** 
 796:/usr/lib/avr/include/avr/power.h **** #if defined(__AVR_HAVE_PRR1_PRT2)
 797:/usr/lib/avr/include/avr/power.h **** #define power_timer2_enable()           (PRR1 &= (uint8_t)~(1 << PRT2))
 798:/usr/lib/avr/include/avr/power.h **** #define power_timer2_disable()          (PRR1 |= (uint8_t)(1 << PRT2))
 799:/usr/lib/avr/include/avr/power.h **** #endif
 800:/usr/lib/avr/include/avr/power.h **** 
 801:/usr/lib/avr/include/avr/power.h **** #if defined(__AVR_HAVE_PRR1_PRT3)
 802:/usr/lib/avr/include/avr/power.h **** #define power_timer3_enable()           (PRR1 &= (uint8_t)~(1 << PRT3))
 803:/usr/lib/avr/include/avr/power.h **** #define power_timer3_disable()          (PRR1 |= (uint8_t)(1 << PRT3))
 804:/usr/lib/avr/include/avr/power.h **** #endif
 805:/usr/lib/avr/include/avr/power.h **** 
 806:/usr/lib/avr/include/avr/power.h **** #if defined(__AVR_HAVE_PRR1_PRT4)
 807:/usr/lib/avr/include/avr/power.h **** #define power_timer4_enable()           (PRR1 &= (uint8_t)~(1 << PRT4))
 808:/usr/lib/avr/include/avr/power.h **** #define power_timer4_disable()          (PRR1 |= (uint8_t)(1 << PRT4))
 809:/usr/lib/avr/include/avr/power.h **** #endif
 810:/usr/lib/avr/include/avr/power.h **** 
 811:/usr/lib/avr/include/avr/power.h **** #if defined(__AVR_HAVE_PRR1_PRT5)
 812:/usr/lib/avr/include/avr/power.h **** #define power_timer5_enable()           (PRR1 &= (uint8_t)~(1 << PRT5))
 813:/usr/lib/avr/include/avr/power.h **** #define power_timer5_disable()          (PRR1 |= (uint8_t)(1 << PRT5))
 814:/usr/lib/avr/include/avr/power.h **** #endif
 815:/usr/lib/avr/include/avr/power.h **** 
 816:/usr/lib/avr/include/avr/power.h **** #if defined(__AVR_HAVE_PRR1_PRTIM3)
 817:/usr/lib/avr/include/avr/power.h **** #define power_timer3_enable()           (PRR1 &= (uint8_t)~(1 << PRTIM3))
 818:/usr/lib/avr/include/avr/power.h **** #define power_timer3_disable()          (PRR1 |= (uint8_t)(1 << PRTIM3))
 819:/usr/lib/avr/include/avr/power.h **** #endif
 820:/usr/lib/avr/include/avr/power.h **** 
 821:/usr/lib/avr/include/avr/power.h **** #if defined(__AVR_HAVE_PRR1_PRTIM4)
 822:/usr/lib/avr/include/avr/power.h **** #define power_timer4_enable()           (PRR1 &= (uint8_t)~(1 << PRTIM4))
 823:/usr/lib/avr/include/avr/power.h **** #define power_timer4_disable()          (PRR1 |= (uint8_t)(1 << PRTIM4))
 824:/usr/lib/avr/include/avr/power.h **** #endif
 825:/usr/lib/avr/include/avr/power.h **** 
 826:/usr/lib/avr/include/avr/power.h **** #if defined(__AVR_HAVE_PRR1_PRTIM5)
 827:/usr/lib/avr/include/avr/power.h **** #define power_timer5_enable()           (PRR1 &= (uint8_t)~(1 << PRTIM5))
 828:/usr/lib/avr/include/avr/power.h **** #define power_timer5_disable()          (PRR1 |= (uint8_t)(1 << PRTIM5))
 829:/usr/lib/avr/include/avr/power.h **** #endif
 830:/usr/lib/avr/include/avr/power.h **** 
 831:/usr/lib/avr/include/avr/power.h **** #if defined(__AVR_HAVE_PRR1_PRTRX24)
 832:/usr/lib/avr/include/avr/power.h **** #define power_transceiver_enable()      (PRR1 &= (uint8_t)~(1 << PRTRX24))
 833:/usr/lib/avr/include/avr/power.h **** #define power_transceiver_disable()     (PRR1 |= (uint8_t)(1 << PRTRX24))
 834:/usr/lib/avr/include/avr/power.h **** #endif
 835:/usr/lib/avr/include/avr/power.h **** 
 836:/usr/lib/avr/include/avr/power.h **** #if defined(__AVR_HAVE_PRR1_PRUSART1)
 837:/usr/lib/avr/include/avr/power.h **** #define power_usart1_enable()           (PRR1 &= (uint8_t)~(1 << PRUSART1))
 838:/usr/lib/avr/include/avr/power.h **** #define power_usart1_disable()          (PRR1 |= (uint8_t)(1 << PRUSART1))
 839:/usr/lib/avr/include/avr/power.h **** #endif
 840:/usr/lib/avr/include/avr/power.h **** 
 841:/usr/lib/avr/include/avr/power.h **** #if defined(__AVR_HAVE_PRR1_PRUSART2)
 842:/usr/lib/avr/include/avr/power.h **** #define power_usart2_enable()           (PRR1 &= (uint8_t)~(1 << PRUSART2))
 843:/usr/lib/avr/include/avr/power.h **** #define power_usart2_disable()          (PRR1 |= (uint8_t)(1 << PRUSART2))
 844:/usr/lib/avr/include/avr/power.h **** #endif
 845:/usr/lib/avr/include/avr/power.h **** 
 846:/usr/lib/avr/include/avr/power.h **** #if defined(__AVR_HAVE_PRR1_PRUSB)
 847:/usr/lib/avr/include/avr/power.h **** #define power_usb_enable()              (PRR1 &= (uint8_t)~(1 << PRUSB))
 848:/usr/lib/avr/include/avr/power.h **** #define power_usb_disable()             (PRR1 |= (uint8_t)(1 << PRUSB))
 849:/usr/lib/avr/include/avr/power.h **** #endif
 850:/usr/lib/avr/include/avr/power.h **** 
 851:/usr/lib/avr/include/avr/power.h **** #if defined(__AVR_HAVE_PRR1_PRUSBH)
 852:/usr/lib/avr/include/avr/power.h **** #define power_usbh_enable()             (PRR1 &= (uint8_t)~(1 << PRUSBH))
 853:/usr/lib/avr/include/avr/power.h **** #define power_usbh_disable()            (PRR1 |= (uint8_t)(1 << PRUSBH))
 854:/usr/lib/avr/include/avr/power.h **** #endif
 855:/usr/lib/avr/include/avr/power.h **** 
 856:/usr/lib/avr/include/avr/power.h **** #if defined(__AVR_HAVE_PRR2_PRDF)
 857:/usr/lib/avr/include/avr/power.h **** #define power_data_fifo_enable()        (PRR2 &= (uint8_t)~(1 << PRDF))
 858:/usr/lib/avr/include/avr/power.h **** #define power_data_fifo_disable()       (PRR2 |= (uint8_t)(1 << PRDF))
 859:/usr/lib/avr/include/avr/power.h **** #endif
 860:/usr/lib/avr/include/avr/power.h **** 
 861:/usr/lib/avr/include/avr/power.h **** #if defined(__AVR_HAVE_PRR2_PRIDS)
 862:/usr/lib/avr/include/avr/power.h **** #define power_id_scan_enable()          (PRR2 &= (uint8_t)~(1 << PRIDS))
 863:/usr/lib/avr/include/avr/power.h **** #define power_id_scan_disable()         (PRR2 |= (uint8_t)(1 << PRIDS))
 864:/usr/lib/avr/include/avr/power.h **** #endif
 865:/usr/lib/avr/include/avr/power.h **** 
 866:/usr/lib/avr/include/avr/power.h **** #if defined(__AVR_HAVE_PRR2_PRRAM0)
 867:/usr/lib/avr/include/avr/power.h **** #define power_ram0_enable()             (PRR2 &= (uint8_t)~(1 << PRRAM0))
 868:/usr/lib/avr/include/avr/power.h **** #define power_ram0_disable()            (PRR2 |= (uint8_t)(1 << PRRAM0))
 869:/usr/lib/avr/include/avr/power.h **** #endif
 870:/usr/lib/avr/include/avr/power.h **** 
 871:/usr/lib/avr/include/avr/power.h **** #if defined(__AVR_HAVE_PRR2_PRRAM1)
 872:/usr/lib/avr/include/avr/power.h **** #define power_ram1_enable()             (PRR2 &= (uint8_t)~(1 << PRRAM1))
 873:/usr/lib/avr/include/avr/power.h **** #define power_ram1_disable()            (PRR2 |= (uint8_t)(1 << PRRAM1))
 874:/usr/lib/avr/include/avr/power.h **** #endif
 875:/usr/lib/avr/include/avr/power.h **** 
 876:/usr/lib/avr/include/avr/power.h **** #if defined(__AVR_HAVE_PRR2_PRRAM2)
 877:/usr/lib/avr/include/avr/power.h **** #define power_ram2_enable()             (PRR2 &= (uint8_t)~(1 << PRRAM2))
 878:/usr/lib/avr/include/avr/power.h **** #define power_ram2_disable()            (PRR2 |= (uint8_t)(1 << PRRAM2))
 879:/usr/lib/avr/include/avr/power.h **** #endif
 880:/usr/lib/avr/include/avr/power.h **** 
 881:/usr/lib/avr/include/avr/power.h **** #if defined(__AVR_HAVE_PRR2_PRRAM3)
 882:/usr/lib/avr/include/avr/power.h **** #define power_ram3_enable()             (PRR2 &= (uint8_t)~(1 << PRRAM3))
 883:/usr/lib/avr/include/avr/power.h **** #define power_ram3_disable()            (PRR2 |= (uint8_t)(1 << PRRAM3))
 884:/usr/lib/avr/include/avr/power.h **** #endif
 885:/usr/lib/avr/include/avr/power.h **** 
 886:/usr/lib/avr/include/avr/power.h **** #if defined(__AVR_HAVE_PRR2_PRRS)
 887:/usr/lib/avr/include/avr/power.h **** #define power_rssi_buffer_enable()      (PRR2 &= (uint8_t)~(1 << PRRS))
 888:/usr/lib/avr/include/avr/power.h **** #define power_rssi_buffer_disable()     (PRR2 |= (uint8_t)(1 << PRRS))
 889:/usr/lib/avr/include/avr/power.h **** #endif
 890:/usr/lib/avr/include/avr/power.h **** 
 891:/usr/lib/avr/include/avr/power.h **** #if defined(__AVR_HAVE_PRR2_PRSF)
 892:/usr/lib/avr/include/avr/power.h **** #define power_preamble_rssi_fifo_enable()       (PRR2 &= (uint8_t)~(1 << PRSF))
 893:/usr/lib/avr/include/avr/power.h **** #define power_preamble_rssi_fifo_disable()      (PRR2 |= (uint8_t)(1 << PRSF))
 894:/usr/lib/avr/include/avr/power.h **** #endif
 895:/usr/lib/avr/include/avr/power.h **** 
 896:/usr/lib/avr/include/avr/power.h **** #if defined(__AVR_HAVE_PRR2_PRSSM)
 897:/usr/lib/avr/include/avr/power.h **** #define power_sequencer_state_machine_enable()  (PRR2 &= (uint8_t)~(1 << PRSSM))
 898:/usr/lib/avr/include/avr/power.h **** #define power_sequencer_state_machine_disable() (PRR2 |= (uint8_t)(1 << PRSSM))
 899:/usr/lib/avr/include/avr/power.h **** #endif
 900:/usr/lib/avr/include/avr/power.h **** 
 901:/usr/lib/avr/include/avr/power.h **** #if defined(__AVR_HAVE_PRR2_PRTM)
 902:/usr/lib/avr/include/avr/power.h **** #define power_tx_modulator_enable()     (PRR2 &= (uint8_t)~(1 << PRTM))
 903:/usr/lib/avr/include/avr/power.h **** #define power_tx_modulator_disable()    (PRR2 |= (uint8_t)(1 << PRTM))
 904:/usr/lib/avr/include/avr/power.h **** #endif
 905:/usr/lib/avr/include/avr/power.h **** 
 906:/usr/lib/avr/include/avr/power.h **** #if defined(__AVR_HAVE_PRR2_PRXA)
 907:/usr/lib/avr/include/avr/power.h **** #define power_rx_buffer_A_enable()      (PRR2 &= (uint8_t)~(1 << PRXA))
 908:/usr/lib/avr/include/avr/power.h **** #define power_rx_buffer_A_disable()     (PRR2 |= (uint8_t)(1 << PRXA))
 909:/usr/lib/avr/include/avr/power.h **** #endif
 910:/usr/lib/avr/include/avr/power.h **** 
 911:/usr/lib/avr/include/avr/power.h **** #if defined(__AVR_HAVE_PRR2_PRXB)
 912:/usr/lib/avr/include/avr/power.h **** #define power_rx_buffer_B_enable()      (PRR2 &= (uint8_t)~(1 << PRXB))
 913:/usr/lib/avr/include/avr/power.h **** #define power_rx_buffer_B_disable()     (PRR2 |= (uint8_t)(1 << PRXB))
 914:/usr/lib/avr/include/avr/power.h **** #endif
 915:/usr/lib/avr/include/avr/power.h **** 
 916:/usr/lib/avr/include/avr/power.h **** #if defined(__AVR_HAVE_PRGEN_AES)
 917:/usr/lib/avr/include/avr/power.h **** #define power_aes_enable()              (PR_PRGEN &= (uint8_t)~(PR_AES_bm))
 918:/usr/lib/avr/include/avr/power.h **** #define power_aes_disable()             (PR_PRGEN |= (uint8_t)PR_AES_bm)
 919:/usr/lib/avr/include/avr/power.h **** #endif
 920:/usr/lib/avr/include/avr/power.h **** 
 921:/usr/lib/avr/include/avr/power.h **** #if defined(__AVR_HAVE_PRGEN_DMA)
 922:/usr/lib/avr/include/avr/power.h **** #define power_dma_enable()              (PR_PRGEN &= (uint8_t)~(PR_DMA_bm))
 923:/usr/lib/avr/include/avr/power.h **** #define power_dma_disable()             (PR_PRGEN |= (uint8_t)PR_DMA_bm)
 924:/usr/lib/avr/include/avr/power.h **** #endif
 925:/usr/lib/avr/include/avr/power.h **** 
 926:/usr/lib/avr/include/avr/power.h **** #if defined(__AVR_HAVE_PRGEN_EBI)
 927:/usr/lib/avr/include/avr/power.h **** #define power_ebi_enable()              (PR_PRGEN &= (uint8_t)~(PR_EBI_bm))
 928:/usr/lib/avr/include/avr/power.h **** #define power_ebi_disable()             (PR_PRGEN |= (uint8_t)PR_EBI_bm)
 929:/usr/lib/avr/include/avr/power.h **** #endif
 930:/usr/lib/avr/include/avr/power.h **** 
 931:/usr/lib/avr/include/avr/power.h **** #if defined(__AVR_HAVE_PRGEN_EDMA)
 932:/usr/lib/avr/include/avr/power.h **** #define power_edma_enable()             (PR_PRGEN &= (uint8_t)~(PR_EDMA_bm))
 933:/usr/lib/avr/include/avr/power.h **** #define power_edma_disable()            (PR_PRGEN |= (uint8_t)PR_EDMA_bm)
 934:/usr/lib/avr/include/avr/power.h **** #endif
 935:/usr/lib/avr/include/avr/power.h **** 
 936:/usr/lib/avr/include/avr/power.h **** #if defined(__AVR_HAVE_PRGEN_EVSYS)
 937:/usr/lib/avr/include/avr/power.h **** #define power_evsys_enable()            (PR_PRGEN &= (uint8_t)~(PR_EVSYS_bm))
 938:/usr/lib/avr/include/avr/power.h **** #define power_evsys_disable()           (PR_PRGEN |= (uint8_t)PR_EVSYS_bm)
 939:/usr/lib/avr/include/avr/power.h **** #endif
 940:/usr/lib/avr/include/avr/power.h **** 
 941:/usr/lib/avr/include/avr/power.h **** #if defined(__AVR_HAVE_PRGEN_LCD)
 942:/usr/lib/avr/include/avr/power.h **** #define power_lcd_enable()              (PR_PRGEN &= (uint8_t)~(PR_LCD_bm))
 943:/usr/lib/avr/include/avr/power.h **** #define power_lcd_disable()             (PR_PRGEN |= (uint8_t)PR_LCD_bm)
 944:/usr/lib/avr/include/avr/power.h **** #endif
 945:/usr/lib/avr/include/avr/power.h **** 
 946:/usr/lib/avr/include/avr/power.h **** #if defined(__AVR_HAVE_PRGEN_RTC)
 947:/usr/lib/avr/include/avr/power.h **** #define power_rtc_enable()              (PR_PRGEN &= (uint8_t)~(PR_RTC_bm))
 948:/usr/lib/avr/include/avr/power.h **** #define power_rtc_disable()             (PR_PRGEN |= (uint8_t)PR_RTC_bm)
 949:/usr/lib/avr/include/avr/power.h **** #endif
 950:/usr/lib/avr/include/avr/power.h **** 
 951:/usr/lib/avr/include/avr/power.h **** #if defined(__AVR_HAVE_PRGEN_USB)
 952:/usr/lib/avr/include/avr/power.h **** #define power_usb_enable()              (PR_PRGEN &= (uint8_t)~(PR_USB_bm))
 953:/usr/lib/avr/include/avr/power.h **** #define power_usb_disable()             (PR_PRGEN &= (uint8_t)(PR_USB_bm))
 954:/usr/lib/avr/include/avr/power.h **** #endif
 955:/usr/lib/avr/include/avr/power.h **** 
 956:/usr/lib/avr/include/avr/power.h **** #if defined(__AVR_HAVE_PRGEN_XCL)
 957:/usr/lib/avr/include/avr/power.h **** #define power_xcl_enable()              (PR_PRGEN &= (uint8_t)~(PR_XCL_bm))
 958:/usr/lib/avr/include/avr/power.h **** #define power_xcl_disable()             (PR_PRGEN |= (uint8_t)PR_XCL_bm)
 959:/usr/lib/avr/include/avr/power.h **** #endif
 960:/usr/lib/avr/include/avr/power.h **** 
 961:/usr/lib/avr/include/avr/power.h **** #if defined(__AVR_HAVE_PRPA_AC)
 962:/usr/lib/avr/include/avr/power.h **** #define power_aca_enable()      (PR_PRPA &= (uint8_t)~(PR_AC_bm))
 963:/usr/lib/avr/include/avr/power.h **** #define power_aca_disable()     (PR_PRPA |= (uint8_t)PR_AC_bm)
 964:/usr/lib/avr/include/avr/power.h **** #endif
 965:/usr/lib/avr/include/avr/power.h **** 
 966:/usr/lib/avr/include/avr/power.h **** #if defined(__AVR_HAVE_PRPA_ADC)
 967:/usr/lib/avr/include/avr/power.h **** #define power_adca_enable()     (PR_PRPA &= (uint8_t)~(PR_ADC_bm))
 968:/usr/lib/avr/include/avr/power.h **** #define power_adca_disable()    (PR_PRPA |= (uint8_t)PR_ADC_bm)
 969:/usr/lib/avr/include/avr/power.h **** #endif
 970:/usr/lib/avr/include/avr/power.h **** 
 971:/usr/lib/avr/include/avr/power.h **** #if defined(__AVR_HAVE_PRPA_DAC)
 972:/usr/lib/avr/include/avr/power.h **** #define power_daca_enable()     (PR_PRPA &= (uint8_t)~(PR_DAC_bm))
 973:/usr/lib/avr/include/avr/power.h **** #define power_daca_disable()    (PR_PRPA |= (uint8_t)PR_DAC_bm)
 974:/usr/lib/avr/include/avr/power.h **** #endif
 975:/usr/lib/avr/include/avr/power.h **** 
 976:/usr/lib/avr/include/avr/power.h **** #if defined(__AVR_HAVE_PRPB_AC)
 977:/usr/lib/avr/include/avr/power.h **** #define power_acb_enable()      (PR_PRPB &= (uint8_t)~(PR_AC_bm))
 978:/usr/lib/avr/include/avr/power.h **** #define power_acb_disable()     (PR_PRPB |= (uint8_t)PR_AC_bm)
 979:/usr/lib/avr/include/avr/power.h **** #endif
 980:/usr/lib/avr/include/avr/power.h **** 
 981:/usr/lib/avr/include/avr/power.h **** #if defined(__AVR_HAVE_PRPB_ADC)
 982:/usr/lib/avr/include/avr/power.h **** #define power_adcb_enable()     (PR_PRPB &= (uint8_t)~(PR_ADC_bm))
 983:/usr/lib/avr/include/avr/power.h **** #define power_adcb_disable()    (PR_PRPB |= (uint8_t)PR_ADC_bm)
 984:/usr/lib/avr/include/avr/power.h **** #endif
 985:/usr/lib/avr/include/avr/power.h **** 
 986:/usr/lib/avr/include/avr/power.h **** #if defined(__AVR_HAVE_PRPB_DAC)
 987:/usr/lib/avr/include/avr/power.h **** #define power_dacb_enable()     (PR_PRPB &= (uint8_t)~(PR_DAC_bm))
 988:/usr/lib/avr/include/avr/power.h **** #define power_dacb_disable()    (PR_PRPB |= (uint8_t)PR_DAC_bm)
 989:/usr/lib/avr/include/avr/power.h **** #endif
 990:/usr/lib/avr/include/avr/power.h **** 
 991:/usr/lib/avr/include/avr/power.h **** #if defined(__AVR_HAVE_PRPC_HIRES)
 992:/usr/lib/avr/include/avr/power.h **** #define power_hiresc_enable()   (PR_PRPC &= (uint8_t)~(PR_HIRES_bm))
 993:/usr/lib/avr/include/avr/power.h **** #define power_hiresc_disable()  (PR_PRPC |= (uint8_t)PR_HIRES_bm)
 994:/usr/lib/avr/include/avr/power.h **** #endif
 995:/usr/lib/avr/include/avr/power.h **** 
 996:/usr/lib/avr/include/avr/power.h **** #if defined(__AVR_HAVE_PRPC_SPI)
 997:/usr/lib/avr/include/avr/power.h **** #define power_spic_enable()     (PR_PRPC &= (uint8_t)~(PR_SPI_bm))
 998:/usr/lib/avr/include/avr/power.h **** #define power_spic_disable()    (PR_PRPC |= (uint8_t)PR_SPI_bm)
 999:/usr/lib/avr/include/avr/power.h **** #endif
1000:/usr/lib/avr/include/avr/power.h **** 
1001:/usr/lib/avr/include/avr/power.h **** #if defined(__AVR_HAVE_PRPC_TC0)
1002:/usr/lib/avr/include/avr/power.h **** #define power_tc0c_enable()     (PR_PRPC &= (uint8_t)~(PR_TC0_bm))
1003:/usr/lib/avr/include/avr/power.h **** #define power_tc0c_disable()    (PR_PRPC |= (uint8_t)PR_TC0_bm)
1004:/usr/lib/avr/include/avr/power.h **** #endif
1005:/usr/lib/avr/include/avr/power.h **** 
1006:/usr/lib/avr/include/avr/power.h **** #if defined(__AVR_HAVE_PRPC_TC1)
1007:/usr/lib/avr/include/avr/power.h **** #define power_tc1c_enable()     (PR_PRPC &= (uint8_t)~(PR_TC1_bm))
1008:/usr/lib/avr/include/avr/power.h **** #define power_tc1c_disable()    (PR_PRPC |= (uint8_t)PR_TC1_bm)
1009:/usr/lib/avr/include/avr/power.h **** #endif
1010:/usr/lib/avr/include/avr/power.h **** 
1011:/usr/lib/avr/include/avr/power.h **** #if defined(__AVR_HAVE_PRPC_TC4)
1012:/usr/lib/avr/include/avr/power.h **** #define power_tc4c_enable()     (PR_PRPC  &= (uint8_t)~(PR_TC4_bm))
1013:/usr/lib/avr/include/avr/power.h **** #define power_tc4c_disable()    (PR_PRPC  |= (uint8_t)PR_TC4_bm)
1014:/usr/lib/avr/include/avr/power.h **** #endif
1015:/usr/lib/avr/include/avr/power.h **** 
1016:/usr/lib/avr/include/avr/power.h **** #if defined(__AVR_HAVE_PRPC_TC5)
1017:/usr/lib/avr/include/avr/power.h **** #define power_tc5c_enable()     (PR_PRPC  &= (uint8_t)~(PR_TC5_bm))
1018:/usr/lib/avr/include/avr/power.h **** #define power_tc5c_disable()    (PR_PRPC  |= (uint8_t)PR_TC5_bm)
1019:/usr/lib/avr/include/avr/power.h **** #endif
1020:/usr/lib/avr/include/avr/power.h **** 
1021:/usr/lib/avr/include/avr/power.h **** #if defined(__AVR_HAVE_PRPC_TWI)
1022:/usr/lib/avr/include/avr/power.h **** #define power_twic_enable()     (PR_PRPC &= (uint8_t)~(PR_TWI_bm))
1023:/usr/lib/avr/include/avr/power.h **** #define power_twic_disable()    (PR_PRPC |= (uint8_t)PR_TWI_bm)
1024:/usr/lib/avr/include/avr/power.h **** #endif
1025:/usr/lib/avr/include/avr/power.h **** 
1026:/usr/lib/avr/include/avr/power.h **** #if defined(__AVR_HAVE_PRPC_USART0)
1027:/usr/lib/avr/include/avr/power.h **** #define power_usartc0_enable()  (PR_PRPC &= (uint8_t)~(PR_USART0_bm))
1028:/usr/lib/avr/include/avr/power.h **** #define power_usartc0_disable() (PR_PRPC |= (uint8_t)PR_USART0_bm)
1029:/usr/lib/avr/include/avr/power.h **** #endif
1030:/usr/lib/avr/include/avr/power.h **** 
1031:/usr/lib/avr/include/avr/power.h **** #if defined(__AVR_HAVE_PRPC_USART1)
1032:/usr/lib/avr/include/avr/power.h **** #define power_usartc1_enable()  (PR_PRPC &= (uint8_t)~(PR_USART1_bm))
1033:/usr/lib/avr/include/avr/power.h **** #define power_usartc1_disable() (PR_PRPC |= (uint8_t)PR_USART1_bm)
1034:/usr/lib/avr/include/avr/power.h **** #endif
1035:/usr/lib/avr/include/avr/power.h **** 
1036:/usr/lib/avr/include/avr/power.h **** #if defined(__AVR_HAVE_PRPD_HIRES)
1037:/usr/lib/avr/include/avr/power.h **** #define power_hiresd_enable()   (PR_PRPD &= (uint8_t)~(PR_HIRES_bm))
1038:/usr/lib/avr/include/avr/power.h **** #define power_hiresd_disable()  (PR_PRPD |= (uint8_t)PR_HIRES_bm)
1039:/usr/lib/avr/include/avr/power.h **** #endif
1040:/usr/lib/avr/include/avr/power.h **** 
1041:/usr/lib/avr/include/avr/power.h **** #if defined(__AVR_HAVE_PRPD_SPI)
1042:/usr/lib/avr/include/avr/power.h **** #define power_spid_enable()     (PR_PRPD &= (uint8_t)~(PR_SPI_bm))
1043:/usr/lib/avr/include/avr/power.h **** #define power_spid_disable()    (PR_PRPD |= (uint8_t)PR_SPI_bm)
1044:/usr/lib/avr/include/avr/power.h **** #endif
1045:/usr/lib/avr/include/avr/power.h **** 
1046:/usr/lib/avr/include/avr/power.h **** #if defined(__AVR_HAVE_PRPD_TC0)
1047:/usr/lib/avr/include/avr/power.h **** #define power_tc0d_enable()     (PR_PRPD &= (uint8_t)~(PR_TC0_bm))
1048:/usr/lib/avr/include/avr/power.h **** #define power_tc0d_disable()    (PR_PRPD |= (uint8_t)PR_TC0_bm)
1049:/usr/lib/avr/include/avr/power.h **** #endif
1050:/usr/lib/avr/include/avr/power.h **** 
1051:/usr/lib/avr/include/avr/power.h **** #if defined(__AVR_HAVE_PRPD_TC1)
1052:/usr/lib/avr/include/avr/power.h **** #define power_tc1d_enable()     (PR_PRPD &= (uint8_t)~(PR_TC1_bm))
1053:/usr/lib/avr/include/avr/power.h **** #define power_tc1d_disable()    (PR_PRPD |= (uint8_t)PR_TC1_bm)
1054:/usr/lib/avr/include/avr/power.h **** #endif
1055:/usr/lib/avr/include/avr/power.h **** 
1056:/usr/lib/avr/include/avr/power.h **** #if defined(__AVR_HAVE_PRPD_TC5)
1057:/usr/lib/avr/include/avr/power.h **** #define power_tc5d_enable()     (PR_PRPD  &= (uint8_t)~(PR_TC5_bm))
1058:/usr/lib/avr/include/avr/power.h **** #define power_tc5d_disable()    (PR_PRPD  |= (uint8_t)PR_TC5_bm)
1059:/usr/lib/avr/include/avr/power.h **** #endif
1060:/usr/lib/avr/include/avr/power.h **** 
1061:/usr/lib/avr/include/avr/power.h **** #if defined(__AVR_HAVE_PRPD_TWI)
1062:/usr/lib/avr/include/avr/power.h **** #define power_twid_enable()     (PR_PRPD &= (uint8_t)~(PR_TWI_bm))
1063:/usr/lib/avr/include/avr/power.h **** #define power_twid_disable()    (PR_PRPD |= (uint8_t)PR_TWI_bm)
1064:/usr/lib/avr/include/avr/power.h **** #endif
1065:/usr/lib/avr/include/avr/power.h **** 
1066:/usr/lib/avr/include/avr/power.h **** #if defined(__AVR_HAVE_PRPD_USART0)
1067:/usr/lib/avr/include/avr/power.h **** #define power_usartd0_enable()  (PR_PRPD &= (uint8_t)~(PR_USART0_bm))
1068:/usr/lib/avr/include/avr/power.h **** #define power_usartd0_disable() (PR_PRPD |= (uint8_t)PR_USART0_bm)
1069:/usr/lib/avr/include/avr/power.h **** #endif
1070:/usr/lib/avr/include/avr/power.h **** 
1071:/usr/lib/avr/include/avr/power.h **** #if defined(__AVR_HAVE_PRPD_USART1)
1072:/usr/lib/avr/include/avr/power.h **** #define power_usartd1_enable()  (PR_PRPD &= (uint8_t)~(PR_USART1_bm))
1073:/usr/lib/avr/include/avr/power.h **** #define power_usartd1_disable() (PR_PRPD |= (uint8_t)PR_USART1_bm)
1074:/usr/lib/avr/include/avr/power.h **** #endif
1075:/usr/lib/avr/include/avr/power.h **** 
1076:/usr/lib/avr/include/avr/power.h **** #if defined(__AVR_HAVE_PRPE_HIRES)
1077:/usr/lib/avr/include/avr/power.h **** #define power_hirese_enable()   (PR_PRPE &= (uint8_t)~(PR_HIRES_bm))
1078:/usr/lib/avr/include/avr/power.h **** #define power_hirese_disable()  (PR_PRPE |= (uint8_t)PR_HIRES_bm)
1079:/usr/lib/avr/include/avr/power.h **** #endif
1080:/usr/lib/avr/include/avr/power.h **** 
1081:/usr/lib/avr/include/avr/power.h **** #if defined(__AVR_HAVE_PRPE_SPI)
1082:/usr/lib/avr/include/avr/power.h **** #define power_spie_enable()     (PR_PRPE &= (uint8_t)~(PR_SPI_bm))
1083:/usr/lib/avr/include/avr/power.h **** #define power_spie_disable()    (PR_PRPE |= (uint8_t)PR_SPI_bm)
1084:/usr/lib/avr/include/avr/power.h **** #endif
1085:/usr/lib/avr/include/avr/power.h **** 
1086:/usr/lib/avr/include/avr/power.h **** #if defined(__AVR_HAVE_PRPE_TC0)
1087:/usr/lib/avr/include/avr/power.h **** #define power_tc0e_enable()     (PR_PRPE &= (uint8_t)~(PR_TC0_bm))
1088:/usr/lib/avr/include/avr/power.h **** #define power_tc0e_disable()    (PR_PRPE |= (uint8_t)PR_TC0_bm)
1089:/usr/lib/avr/include/avr/power.h **** #endif
1090:/usr/lib/avr/include/avr/power.h **** 
1091:/usr/lib/avr/include/avr/power.h **** #if defined(__AVR_HAVE_PRPE_TC1)
1092:/usr/lib/avr/include/avr/power.h **** #define power_tc1e_enable()     (PR_PRPE &= (uint8_t)~(PR_TC1_bm))
1093:/usr/lib/avr/include/avr/power.h **** #define power_tc1e_disable()    (PR_PRPE |= (uint8_t)PR_TC1_bm)
1094:/usr/lib/avr/include/avr/power.h **** #endif
1095:/usr/lib/avr/include/avr/power.h **** 
1096:/usr/lib/avr/include/avr/power.h **** #if defined(__AVR_HAVE_PRPE_TWI)
1097:/usr/lib/avr/include/avr/power.h **** #define power_twie_enable()     (PR_PRPE &= (uint8_t)~(PR_TWI_bm))
1098:/usr/lib/avr/include/avr/power.h **** #define power_twie_disable()    (PR_PRPE |= (uint8_t)PR_TWI_bm)
1099:/usr/lib/avr/include/avr/power.h **** #endif
1100:/usr/lib/avr/include/avr/power.h **** 
1101:/usr/lib/avr/include/avr/power.h **** #if defined(__AVR_HAVE_PRPE_USART0)
1102:/usr/lib/avr/include/avr/power.h **** #define power_usarte0_enable()  (PR_PRPE &= (uint8_t)~(PR_USART0_bm))
1103:/usr/lib/avr/include/avr/power.h **** #define power_usarte0_disable() (PR_PRPE |= (uint8_t)PR_USART0_bm)
1104:/usr/lib/avr/include/avr/power.h **** #endif
1105:/usr/lib/avr/include/avr/power.h **** 
1106:/usr/lib/avr/include/avr/power.h **** #if defined(__AVR_HAVE_PRPE_USART1)
1107:/usr/lib/avr/include/avr/power.h **** #define power_usarte1_enable()  (PR_PRPE &= (uint8_t)~(PR_USART1_bm))
1108:/usr/lib/avr/include/avr/power.h **** #define power_usarte1_disable() (PR_PRPE |= (uint8_t)PR_USART1_bm)
1109:/usr/lib/avr/include/avr/power.h **** #endif
1110:/usr/lib/avr/include/avr/power.h **** 
1111:/usr/lib/avr/include/avr/power.h **** #if defined(__AVR_HAVE_PRPF_HIRES)
1112:/usr/lib/avr/include/avr/power.h **** #define power_hiresf_enable()   (PR_PRPF &= (uint8_t)~(PR_HIRES_bm))
1113:/usr/lib/avr/include/avr/power.h **** #define power_hiresf_disable()  (PR_PRPF |= (uint8_t)PR_HIRES_bm)
1114:/usr/lib/avr/include/avr/power.h **** #endif
1115:/usr/lib/avr/include/avr/power.h **** 
1116:/usr/lib/avr/include/avr/power.h **** #if defined(__AVR_HAVE_PRPF_SPI)
1117:/usr/lib/avr/include/avr/power.h **** #define power_spif_enable()     (PR_PRPF &= (uint8_t)~(PR_SPI_bm))
1118:/usr/lib/avr/include/avr/power.h **** #define power_spif_disable()    (PR_PRPF |= (uint8_t)PR_SPI_bm)
1119:/usr/lib/avr/include/avr/power.h **** #endif
1120:/usr/lib/avr/include/avr/power.h **** 
1121:/usr/lib/avr/include/avr/power.h **** #if defined(__AVR_HAVE_PRPF_TC0)
1122:/usr/lib/avr/include/avr/power.h **** #define power_tc0f_enable()     (PR_PRPF &= (uint8_t)~(PR_TC0_bm))
1123:/usr/lib/avr/include/avr/power.h **** #define power_tc0f_disable()    (PR_PRPF |= (uint8_t)PR_TC0_bm)
1124:/usr/lib/avr/include/avr/power.h **** #endif
1125:/usr/lib/avr/include/avr/power.h **** 
1126:/usr/lib/avr/include/avr/power.h **** #if defined(__AVR_HAVE_PRPF_TC1)
1127:/usr/lib/avr/include/avr/power.h **** #define power_tc1f_enable()     (PR_PRPF &= (uint8_t)~(PR_TC1_bm))
1128:/usr/lib/avr/include/avr/power.h **** #define power_tc1f_disable()    (PR_PRPF |= (uint8_t)PR_TC1_bm)
1129:/usr/lib/avr/include/avr/power.h **** #endif
1130:/usr/lib/avr/include/avr/power.h **** 
1131:/usr/lib/avr/include/avr/power.h **** #if defined(__AVR_HAVE_PRPF_TWI)
1132:/usr/lib/avr/include/avr/power.h **** #define power_twif_enable()     (PR_PRPF &= (uint8_t)~(PR_TWI_bm))
1133:/usr/lib/avr/include/avr/power.h **** #define power_twif_disable()    (PR_PRPF |= (uint8_t)PR_TWI_bm)
1134:/usr/lib/avr/include/avr/power.h **** #endif
1135:/usr/lib/avr/include/avr/power.h **** 
1136:/usr/lib/avr/include/avr/power.h **** #if defined(__AVR_HAVE_PRPF_USART0)
1137:/usr/lib/avr/include/avr/power.h **** #define power_usartf0_enable()  (PR_PRPF &= (uint8_t)~(PR_USART0_bm))
1138:/usr/lib/avr/include/avr/power.h **** #define power_usartf0_disable() (PR_PRPF |= (uint8_t)PR_USART0_bm)
1139:/usr/lib/avr/include/avr/power.h **** #endif
1140:/usr/lib/avr/include/avr/power.h **** 
1141:/usr/lib/avr/include/avr/power.h **** #if defined(__AVR_HAVE_PRPF_USART1)
1142:/usr/lib/avr/include/avr/power.h **** #define power_usartf1_enable()  (PR_PRPF &= (uint8_t)~(PR_USART1_bm))
1143:/usr/lib/avr/include/avr/power.h **** #define power_usartf1_disable() (PR_PRPF |= (uint8_t)PR_USART1_bm)
1144:/usr/lib/avr/include/avr/power.h **** #endif
1145:/usr/lib/avr/include/avr/power.h **** 
1146:/usr/lib/avr/include/avr/power.h **** 
1147:/usr/lib/avr/include/avr/power.h **** static __inline void
1148:/usr/lib/avr/include/avr/power.h **** __attribute__ ((__always_inline__))
1149:/usr/lib/avr/include/avr/power.h **** __power_all_enable()
1150:/usr/lib/avr/include/avr/power.h **** {
1151:/usr/lib/avr/include/avr/power.h **** #ifdef __AVR_HAVE_PRR
1152:/usr/lib/avr/include/avr/power.h ****     PRR &= (uint8_t)~(__AVR_HAVE_PRR);
1153:/usr/lib/avr/include/avr/power.h **** #endif
1154:/usr/lib/avr/include/avr/power.h **** 
1155:/usr/lib/avr/include/avr/power.h **** #ifdef __AVR_HAVE_PRR0
1156:/usr/lib/avr/include/avr/power.h ****     PRR0 &= (uint8_t)~(__AVR_HAVE_PRR0);
1157:/usr/lib/avr/include/avr/power.h **** #endif
1158:/usr/lib/avr/include/avr/power.h **** 
1159:/usr/lib/avr/include/avr/power.h **** #ifdef __AVR_HAVE_PRR1
1160:/usr/lib/avr/include/avr/power.h ****     PRR1 &= (uint8_t)~(__AVR_HAVE_PRR1);
1161:/usr/lib/avr/include/avr/power.h **** #endif
1162:/usr/lib/avr/include/avr/power.h **** 
1163:/usr/lib/avr/include/avr/power.h **** #ifdef __AVR_HAVE_PRR2
1164:/usr/lib/avr/include/avr/power.h ****    PRR2 &= (uint8_t)~(__AVR_HAVE_PRR2);
1165:/usr/lib/avr/include/avr/power.h **** #endif
1166:/usr/lib/avr/include/avr/power.h **** 
1167:/usr/lib/avr/include/avr/power.h **** #ifdef __AVR_HAVE_PRGEN
1168:/usr/lib/avr/include/avr/power.h ****     PR_PRGEN &= (uint8_t)~(__AVR_HAVE_PRGEN);
1169:/usr/lib/avr/include/avr/power.h **** #endif
1170:/usr/lib/avr/include/avr/power.h **** 
1171:/usr/lib/avr/include/avr/power.h **** #ifdef __AVR_HAVE_PRPA
1172:/usr/lib/avr/include/avr/power.h ****     PR_PRPA &= (uint8_t)~(__AVR_HAVE_PRPA);
1173:/usr/lib/avr/include/avr/power.h **** #endif
1174:/usr/lib/avr/include/avr/power.h **** 
1175:/usr/lib/avr/include/avr/power.h **** #ifdef __AVR_HAVE_PRPB
1176:/usr/lib/avr/include/avr/power.h ****     PR_PRPB &= (uint8_t)~(__AVR_HAVE_PRPB);
1177:/usr/lib/avr/include/avr/power.h **** #endif
1178:/usr/lib/avr/include/avr/power.h **** 
1179:/usr/lib/avr/include/avr/power.h **** #ifdef __AVR_HAVE_PRPC
1180:/usr/lib/avr/include/avr/power.h ****     PR_PRPC &= (uint8_t)~(__AVR_HAVE_PRPC);
1181:/usr/lib/avr/include/avr/power.h **** #endif
1182:/usr/lib/avr/include/avr/power.h **** 
1183:/usr/lib/avr/include/avr/power.h **** #ifdef __AVR_HAVE_PRPD
1184:/usr/lib/avr/include/avr/power.h ****     PR_PRPD &= (uint8_t)~(__AVR_HAVE_PRPD);
1185:/usr/lib/avr/include/avr/power.h **** #endif
1186:/usr/lib/avr/include/avr/power.h **** 
1187:/usr/lib/avr/include/avr/power.h **** #ifdef __AVR_HAVE_PRPE
1188:/usr/lib/avr/include/avr/power.h ****     PR_PRPE &= (uint8_t)~(__AVR_HAVE_PRPE);
1189:/usr/lib/avr/include/avr/power.h **** #endif
1190:/usr/lib/avr/include/avr/power.h **** 
1191:/usr/lib/avr/include/avr/power.h **** #ifdef __AVR_HAVE_PRPF
1192:/usr/lib/avr/include/avr/power.h ****     PR_PRPF &= (uint8_t)~(__AVR_HAVE_PRPF);
1193:/usr/lib/avr/include/avr/power.h **** #endif
1194:/usr/lib/avr/include/avr/power.h **** }
1195:/usr/lib/avr/include/avr/power.h **** 
1196:/usr/lib/avr/include/avr/power.h **** static __inline void
1197:/usr/lib/avr/include/avr/power.h **** __attribute__ ((__always_inline__))
1198:/usr/lib/avr/include/avr/power.h **** __power_all_disable()
1199:/usr/lib/avr/include/avr/power.h **** {
1200:/usr/lib/avr/include/avr/power.h **** #ifdef __AVR_HAVE_PRR
1201:/usr/lib/avr/include/avr/power.h ****     PRR |= (uint8_t)(__AVR_HAVE_PRR);
1202:/usr/lib/avr/include/avr/power.h **** #endif
1203:/usr/lib/avr/include/avr/power.h **** 
1204:/usr/lib/avr/include/avr/power.h **** #ifdef __AVR_HAVE_PRR0
1205:/usr/lib/avr/include/avr/power.h ****     PRR0 |= (uint8_t)(__AVR_HAVE_PRR0);
1206:/usr/lib/avr/include/avr/power.h **** #endif
1207:/usr/lib/avr/include/avr/power.h **** 
1208:/usr/lib/avr/include/avr/power.h **** #ifdef __AVR_HAVE_PRR1
1209:/usr/lib/avr/include/avr/power.h ****     PRR1 |= (uint8_t)(__AVR_HAVE_PRR1);
1210:/usr/lib/avr/include/avr/power.h **** #endif
1211:/usr/lib/avr/include/avr/power.h **** 
1212:/usr/lib/avr/include/avr/power.h **** #ifdef __AVR_HAVE_PRR2
1213:/usr/lib/avr/include/avr/power.h ****     PRR2 |= (uint8_t)(__AVR_HAVE_PRR2);
1214:/usr/lib/avr/include/avr/power.h **** #endif
1215:/usr/lib/avr/include/avr/power.h **** 
1216:/usr/lib/avr/include/avr/power.h **** #ifdef __AVR_HAVE_PRGEN
1217:/usr/lib/avr/include/avr/power.h ****     PR_PRGEN |= (uint8_t)(__AVR_HAVE_PRGEN);
1218:/usr/lib/avr/include/avr/power.h **** #endif
1219:/usr/lib/avr/include/avr/power.h **** 
1220:/usr/lib/avr/include/avr/power.h **** #ifdef __AVR_HAVE_PRPA
1221:/usr/lib/avr/include/avr/power.h ****     PR_PRPA |= (uint8_t)(__AVR_HAVE_PRPA);
1222:/usr/lib/avr/include/avr/power.h **** #endif
1223:/usr/lib/avr/include/avr/power.h **** 
1224:/usr/lib/avr/include/avr/power.h **** #ifdef __AVR_HAVE_PRPB
1225:/usr/lib/avr/include/avr/power.h ****     PR_PRPB |= (uint8_t)(__AVR_HAVE_PRPB);
1226:/usr/lib/avr/include/avr/power.h **** #endif
1227:/usr/lib/avr/include/avr/power.h **** 
1228:/usr/lib/avr/include/avr/power.h **** #ifdef __AVR_HAVE_PRPC
1229:/usr/lib/avr/include/avr/power.h ****     PR_PRPC |= (uint8_t)(__AVR_HAVE_PRPC);
1230:/usr/lib/avr/include/avr/power.h **** #endif
1231:/usr/lib/avr/include/avr/power.h **** 
1232:/usr/lib/avr/include/avr/power.h **** #ifdef __AVR_HAVE_PRPD
1233:/usr/lib/avr/include/avr/power.h ****     PR_PRPD |= (uint8_t)(__AVR_HAVE_PRPD);
1234:/usr/lib/avr/include/avr/power.h **** #endif
1235:/usr/lib/avr/include/avr/power.h **** 
1236:/usr/lib/avr/include/avr/power.h **** #ifdef __AVR_HAVE_PRPE
1237:/usr/lib/avr/include/avr/power.h ****     PR_PRPE |= (uint8_t)(__AVR_HAVE_PRPE);
1238:/usr/lib/avr/include/avr/power.h **** #endif
1239:/usr/lib/avr/include/avr/power.h **** 
1240:/usr/lib/avr/include/avr/power.h **** #ifdef __AVR_HAVE_PRPF
1241:/usr/lib/avr/include/avr/power.h ****     PR_PRPF |= (uint8_t)(__AVR_HAVE_PRPF);
1242:/usr/lib/avr/include/avr/power.h **** #endif
1243:/usr/lib/avr/include/avr/power.h **** }
1244:/usr/lib/avr/include/avr/power.h **** 
1245:/usr/lib/avr/include/avr/power.h **** #ifndef power_all_enable
1246:/usr/lib/avr/include/avr/power.h **** #define power_all_enable() __power_all_enable()
1247:/usr/lib/avr/include/avr/power.h **** #endif
1248:/usr/lib/avr/include/avr/power.h **** 
1249:/usr/lib/avr/include/avr/power.h **** #ifndef power_all_disable
1250:/usr/lib/avr/include/avr/power.h **** #define power_all_disable() __power_all_disable()
1251:/usr/lib/avr/include/avr/power.h **** #endif
1252:/usr/lib/avr/include/avr/power.h **** 
1253:/usr/lib/avr/include/avr/power.h **** #if defined(__AVR_AT90CAN32__) \
1254:/usr/lib/avr/include/avr/power.h **** || defined(__AVR_AT90CAN64__) \
1255:/usr/lib/avr/include/avr/power.h **** || defined(__AVR_AT90CAN128__) \
1256:/usr/lib/avr/include/avr/power.h **** || defined(__AVR_AT90PWM1__) \
1257:/usr/lib/avr/include/avr/power.h **** || defined(__AVR_AT90PWM2__) \
1258:/usr/lib/avr/include/avr/power.h **** || defined(__AVR_AT90PWM2B__) \
1259:/usr/lib/avr/include/avr/power.h **** || defined(__AVR_AT90PWM3__) \
1260:/usr/lib/avr/include/avr/power.h **** || defined(__AVR_AT90PWM3B__) \
1261:/usr/lib/avr/include/avr/power.h **** || defined(__AVR_AT90PWM81__) \
1262:/usr/lib/avr/include/avr/power.h **** || defined(__AVR_AT90PWM161__) \
1263:/usr/lib/avr/include/avr/power.h **** || defined(__AVR_AT90PWM216__) \
1264:/usr/lib/avr/include/avr/power.h **** || defined(__AVR_AT90PWM316__) \
1265:/usr/lib/avr/include/avr/power.h **** || defined(__AVR_AT90SCR100__) \
1266:/usr/lib/avr/include/avr/power.h **** || defined(__AVR_AT90USB646__) \
1267:/usr/lib/avr/include/avr/power.h **** || defined(__AVR_AT90USB647__) \
1268:/usr/lib/avr/include/avr/power.h **** || defined(__AVR_AT90USB82__) \
1269:/usr/lib/avr/include/avr/power.h **** || defined(__AVR_AT90USB1286__) \
1270:/usr/lib/avr/include/avr/power.h **** || defined(__AVR_AT90USB1287__) \
1271:/usr/lib/avr/include/avr/power.h **** || defined(__AVR_AT90USB162__) \
1272:/usr/lib/avr/include/avr/power.h **** || defined(__AVR_ATA5505__) \
1273:/usr/lib/avr/include/avr/power.h **** || defined(__AVR_ATA5272__) \
1274:/usr/lib/avr/include/avr/power.h **** || defined(__AVR_ATA6617C__) \
1275:/usr/lib/avr/include/avr/power.h **** || defined(__AVR_ATA664251__) \
1276:/usr/lib/avr/include/avr/power.h **** || defined(__AVR_ATmega1280__) \
1277:/usr/lib/avr/include/avr/power.h **** || defined(__AVR_ATmega1281__) \
1278:/usr/lib/avr/include/avr/power.h **** || defined(__AVR_ATmega1284__) \
1279:/usr/lib/avr/include/avr/power.h **** || defined(__AVR_ATmega128RFA1__) \
1280:/usr/lib/avr/include/avr/power.h **** || defined(__AVR_ATmega128RFR2__) \
1281:/usr/lib/avr/include/avr/power.h **** || defined(__AVR_ATmega1284RFR2__) \
1282:/usr/lib/avr/include/avr/power.h **** || defined(__AVR_ATmega1284P__) \
1283:/usr/lib/avr/include/avr/power.h **** || defined(__AVR_ATmega162__) \
1284:/usr/lib/avr/include/avr/power.h **** || defined(__AVR_ATmega164A__) \
1285:/usr/lib/avr/include/avr/power.h **** || defined(__AVR_ATmega164P__) \
1286:/usr/lib/avr/include/avr/power.h **** || defined(__AVR_ATmega164PA__) \
1287:/usr/lib/avr/include/avr/power.h **** || defined(__AVR_ATmega165__) \
1288:/usr/lib/avr/include/avr/power.h **** || defined(__AVR_ATmega165A__) \
1289:/usr/lib/avr/include/avr/power.h **** || defined(__AVR_ATmega165P__) \
1290:/usr/lib/avr/include/avr/power.h **** || defined(__AVR_ATmega165PA__) \
1291:/usr/lib/avr/include/avr/power.h **** || defined(__AVR_ATmega168__) \
1292:/usr/lib/avr/include/avr/power.h **** || defined(__AVR_ATmega168A__) \
1293:/usr/lib/avr/include/avr/power.h **** || defined(__AVR_ATmega168P__) \
1294:/usr/lib/avr/include/avr/power.h **** || defined(__AVR_ATmega168PA__) \
1295:/usr/lib/avr/include/avr/power.h **** || defined(__AVR_ATmega168PB__) \
1296:/usr/lib/avr/include/avr/power.h **** || defined(__AVR_ATmega169__) \
1297:/usr/lib/avr/include/avr/power.h **** || defined(__AVR_ATmega169A__) \
1298:/usr/lib/avr/include/avr/power.h **** || defined(__AVR_ATmega169P__) \
1299:/usr/lib/avr/include/avr/power.h **** || defined(__AVR_ATmega169PA__) \
1300:/usr/lib/avr/include/avr/power.h **** || defined(__AVR_ATmega16M1__) \
1301:/usr/lib/avr/include/avr/power.h **** || defined(__AVR_ATmega16U2__) \
1302:/usr/lib/avr/include/avr/power.h **** || defined(__AVR_ATmega324PA__) \
1303:/usr/lib/avr/include/avr/power.h **** || defined(__AVR_ATmega16U4__) \
1304:/usr/lib/avr/include/avr/power.h **** || defined(__AVR_ATmega2560__) \
1305:/usr/lib/avr/include/avr/power.h **** || defined(__AVR_ATmega2561__) \
1306:/usr/lib/avr/include/avr/power.h **** || defined(__AVR_ATmega256RFR2__) \
1307:/usr/lib/avr/include/avr/power.h **** || defined(__AVR_ATmega2564RFR2__) \
1308:/usr/lib/avr/include/avr/power.h **** || defined(__AVR_ATmega324A__) \
1309:/usr/lib/avr/include/avr/power.h **** || defined(__AVR_ATmega324P__) \
1310:/usr/lib/avr/include/avr/power.h **** || defined(__AVR_ATmega325__) \
1311:/usr/lib/avr/include/avr/power.h **** || defined(__AVR_ATmega325A__) \
1312:/usr/lib/avr/include/avr/power.h **** || defined(__AVR_ATmega325P__) \
1313:/usr/lib/avr/include/avr/power.h **** || defined(__AVR_ATmega325PA__) \
1314:/usr/lib/avr/include/avr/power.h **** || defined(__AVR_ATmega3250__) \
1315:/usr/lib/avr/include/avr/power.h **** || defined(__AVR_ATmega3250A__) \
1316:/usr/lib/avr/include/avr/power.h **** || defined(__AVR_ATmega3250P__) \
1317:/usr/lib/avr/include/avr/power.h **** || defined(__AVR_ATmega3250PA__) \
1318:/usr/lib/avr/include/avr/power.h **** || defined(__AVR_ATmega328__) \
1319:/usr/lib/avr/include/avr/power.h **** || defined(__AVR_ATmega328P__) \
1320:/usr/lib/avr/include/avr/power.h **** || defined(__AVR_ATmega329__) \
1321:/usr/lib/avr/include/avr/power.h **** || defined(__AVR_ATmega329A__) \
1322:/usr/lib/avr/include/avr/power.h **** || defined(__AVR_ATmega329P__) \
1323:/usr/lib/avr/include/avr/power.h **** || defined(__AVR_ATmega329PA__) \
1324:/usr/lib/avr/include/avr/power.h **** || defined(__AVR_ATmega3290__) \
1325:/usr/lib/avr/include/avr/power.h **** || defined(__AVR_ATmega3290A__) \
1326:/usr/lib/avr/include/avr/power.h **** || defined(__AVR_ATmega3290P__) \
1327:/usr/lib/avr/include/avr/power.h **** || defined(__AVR_ATmega3290PA__) \
1328:/usr/lib/avr/include/avr/power.h **** || defined(__AVR_ATmega32C1__) \
1329:/usr/lib/avr/include/avr/power.h **** || defined(__AVR_ATmega32M1__) \
1330:/usr/lib/avr/include/avr/power.h **** || defined(__AVR_ATmega32U2__) \
1331:/usr/lib/avr/include/avr/power.h **** || defined(__AVR_ATmega32U4__) \
1332:/usr/lib/avr/include/avr/power.h **** || defined(__AVR_ATmega32U6__) \
1333:/usr/lib/avr/include/avr/power.h **** || defined(__AVR_ATmega48__) \
1334:/usr/lib/avr/include/avr/power.h **** || defined(__AVR_ATmega48A__) \
1335:/usr/lib/avr/include/avr/power.h **** || defined(__AVR_ATmega48PA__) \
1336:/usr/lib/avr/include/avr/power.h **** || defined(__AVR_ATmega48PB__) \
1337:/usr/lib/avr/include/avr/power.h **** || defined(__AVR_ATmega48P__) \
1338:/usr/lib/avr/include/avr/power.h **** || defined(__AVR_ATmega640__) \
1339:/usr/lib/avr/include/avr/power.h **** || defined(__AVR_ATmega649P__) \
1340:/usr/lib/avr/include/avr/power.h **** || defined(__AVR_ATmega644__) \
1341:/usr/lib/avr/include/avr/power.h **** || defined(__AVR_ATmega644A__) \
1342:/usr/lib/avr/include/avr/power.h **** || defined(__AVR_ATmega644P__) \
1343:/usr/lib/avr/include/avr/power.h **** || defined(__AVR_ATmega644PA__) \
1344:/usr/lib/avr/include/avr/power.h **** || defined(__AVR_ATmega645__) \
1345:/usr/lib/avr/include/avr/power.h **** || defined(__AVR_ATmega645A__) \
1346:/usr/lib/avr/include/avr/power.h **** || defined(__AVR_ATmega645P__) \
1347:/usr/lib/avr/include/avr/power.h **** || defined(__AVR_ATmega6450__) \
1348:/usr/lib/avr/include/avr/power.h **** || defined(__AVR_ATmega6450A__) \
1349:/usr/lib/avr/include/avr/power.h **** || defined(__AVR_ATmega6450P__) \
1350:/usr/lib/avr/include/avr/power.h **** || defined(__AVR_ATmega649__) \
1351:/usr/lib/avr/include/avr/power.h **** || defined(__AVR_ATmega649A__) \
1352:/usr/lib/avr/include/avr/power.h **** || defined(__AVR_ATmega64M1__) \
1353:/usr/lib/avr/include/avr/power.h **** || defined(__AVR_ATmega64C1__) \
1354:/usr/lib/avr/include/avr/power.h **** || defined(__AVR_ATmega88A__) \
1355:/usr/lib/avr/include/avr/power.h **** || defined(__AVR_ATmega88PA__) \
1356:/usr/lib/avr/include/avr/power.h **** || defined(__AVR_ATmega88PB__) \
1357:/usr/lib/avr/include/avr/power.h **** || defined(__AVR_ATmega6490__) \
1358:/usr/lib/avr/include/avr/power.h **** || defined(__AVR_ATmega6490A__) \
1359:/usr/lib/avr/include/avr/power.h **** || defined(__AVR_ATmega6490P__) \
1360:/usr/lib/avr/include/avr/power.h **** || defined(__AVR_ATmega64RFR2__) \
1361:/usr/lib/avr/include/avr/power.h **** || defined(__AVR_ATmega644RFR2__) \
1362:/usr/lib/avr/include/avr/power.h **** || defined(__AVR_ATmega88__) \
1363:/usr/lib/avr/include/avr/power.h **** || defined(__AVR_ATmega88P__) \
1364:/usr/lib/avr/include/avr/power.h **** || defined(__AVR_ATmega8U2__) \
1365:/usr/lib/avr/include/avr/power.h **** || defined(__AVR_ATmega16U2__) \
1366:/usr/lib/avr/include/avr/power.h **** || defined(__AVR_ATmega32U2__) \
1367:/usr/lib/avr/include/avr/power.h **** || defined(__AVR_ATtiny48__) \
1368:/usr/lib/avr/include/avr/power.h **** || defined(__AVR_ATtiny88__) \
1369:/usr/lib/avr/include/avr/power.h **** || defined(__AVR_ATtiny87__) \
1370:/usr/lib/avr/include/avr/power.h **** || defined(__AVR_ATtiny167__) \
1371:/usr/lib/avr/include/avr/power.h **** || defined(__DOXYGEN__)
1372:/usr/lib/avr/include/avr/power.h **** 
1373:/usr/lib/avr/include/avr/power.h **** 
1374:/usr/lib/avr/include/avr/power.h **** /** \addtogroup avr_power
1375:/usr/lib/avr/include/avr/power.h **** 
1376:/usr/lib/avr/include/avr/power.h **** Some of the newer AVRs contain a System Clock Prescale Register (CLKPR) that
1377:/usr/lib/avr/include/avr/power.h **** allows you to decrease the system clock frequency and the power consumption
1378:/usr/lib/avr/include/avr/power.h **** when the need for processing power is low.
1379:/usr/lib/avr/include/avr/power.h **** On some earlier AVRs (ATmega103, ATmega64, ATmega128), similar
1380:/usr/lib/avr/include/avr/power.h **** functionality can be achieved through the XTAL Divide Control Register.
1381:/usr/lib/avr/include/avr/power.h **** Below are two macros and an enumerated type that can be used to
1382:/usr/lib/avr/include/avr/power.h **** interface to the Clock Prescale Register or
1383:/usr/lib/avr/include/avr/power.h **** XTAL Divide Control Register.
1384:/usr/lib/avr/include/avr/power.h **** 
1385:/usr/lib/avr/include/avr/power.h **** \note Not all AVR devices have a clock prescaler. On those devices
1386:/usr/lib/avr/include/avr/power.h **** without a Clock Prescale Register or XTAL Divide Control Register, these
1387:/usr/lib/avr/include/avr/power.h **** macros are not available.
1388:/usr/lib/avr/include/avr/power.h **** */
1389:/usr/lib/avr/include/avr/power.h **** 
1390:/usr/lib/avr/include/avr/power.h **** 
1391:/usr/lib/avr/include/avr/power.h **** /** \addtogroup avr_power
1392:/usr/lib/avr/include/avr/power.h **** \code 
1393:/usr/lib/avr/include/avr/power.h **** typedef enum
1394:/usr/lib/avr/include/avr/power.h **** {
1395:/usr/lib/avr/include/avr/power.h ****     clock_div_1 = 0,
1396:/usr/lib/avr/include/avr/power.h ****     clock_div_2 = 1,
1397:/usr/lib/avr/include/avr/power.h ****     clock_div_4 = 2,
1398:/usr/lib/avr/include/avr/power.h ****     clock_div_8 = 3,
1399:/usr/lib/avr/include/avr/power.h ****     clock_div_16 = 4,
1400:/usr/lib/avr/include/avr/power.h ****     clock_div_32 = 5,
1401:/usr/lib/avr/include/avr/power.h ****     clock_div_64 = 6,
1402:/usr/lib/avr/include/avr/power.h ****     clock_div_128 = 7,
1403:/usr/lib/avr/include/avr/power.h ****     clock_div_256 = 8,
1404:/usr/lib/avr/include/avr/power.h ****     clock_div_1_rc = 15, // ATmega128RFA1 only
1405:/usr/lib/avr/include/avr/power.h **** } clock_div_t;
1406:/usr/lib/avr/include/avr/power.h **** \endcode
1407:/usr/lib/avr/include/avr/power.h **** Clock prescaler setting enumerations for device using
1408:/usr/lib/avr/include/avr/power.h **** System Clock Prescale Register.
1409:/usr/lib/avr/include/avr/power.h **** 
1410:/usr/lib/avr/include/avr/power.h **** \code
1411:/usr/lib/avr/include/avr/power.h **** typedef enum
1412:/usr/lib/avr/include/avr/power.h **** {
1413:/usr/lib/avr/include/avr/power.h ****     clock_div_1 = 1,
1414:/usr/lib/avr/include/avr/power.h ****     clock_div_2 = 2,
1415:/usr/lib/avr/include/avr/power.h ****     clock_div_4 = 4,
1416:/usr/lib/avr/include/avr/power.h ****     clock_div_8 = 8,
1417:/usr/lib/avr/include/avr/power.h ****     clock_div_16 = 16,
1418:/usr/lib/avr/include/avr/power.h ****     clock_div_32 = 32,
1419:/usr/lib/avr/include/avr/power.h ****     clock_div_64 = 64,
1420:/usr/lib/avr/include/avr/power.h ****     clock_div_128 = 128
1421:/usr/lib/avr/include/avr/power.h **** } clock_div_t;
1422:/usr/lib/avr/include/avr/power.h **** \endcode
1423:/usr/lib/avr/include/avr/power.h **** Clock prescaler setting enumerations for device using
1424:/usr/lib/avr/include/avr/power.h **** XTAL Divide Control Register.
1425:/usr/lib/avr/include/avr/power.h **** 
1426:/usr/lib/avr/include/avr/power.h **** */
1427:/usr/lib/avr/include/avr/power.h **** typedef enum
1428:/usr/lib/avr/include/avr/power.h **** {
1429:/usr/lib/avr/include/avr/power.h ****     clock_div_1 = 0,
1430:/usr/lib/avr/include/avr/power.h ****     clock_div_2 = 1,
1431:/usr/lib/avr/include/avr/power.h ****     clock_div_4 = 2,
1432:/usr/lib/avr/include/avr/power.h ****     clock_div_8 = 3,
1433:/usr/lib/avr/include/avr/power.h ****     clock_div_16 = 4,
1434:/usr/lib/avr/include/avr/power.h ****     clock_div_32 = 5,
1435:/usr/lib/avr/include/avr/power.h ****     clock_div_64 = 6,
1436:/usr/lib/avr/include/avr/power.h ****     clock_div_128 = 7,
1437:/usr/lib/avr/include/avr/power.h ****     clock_div_256 = 8
1438:/usr/lib/avr/include/avr/power.h **** #if defined(__AVR_ATmega128RFA1__) \
1439:/usr/lib/avr/include/avr/power.h **** || defined(__AVR_ATmega256RFR2__) \
1440:/usr/lib/avr/include/avr/power.h **** || defined(__AVR_ATmega2564RFR2__) \
1441:/usr/lib/avr/include/avr/power.h **** || defined(__AVR_ATmega128RFR2__) \
1442:/usr/lib/avr/include/avr/power.h **** || defined(__AVR_ATmega1284RFR2__) \
1443:/usr/lib/avr/include/avr/power.h **** || defined(__AVR_ATmega64RFR2__) \
1444:/usr/lib/avr/include/avr/power.h **** || defined(__AVR_ATmega644RFR2__)
1445:/usr/lib/avr/include/avr/power.h ****     , clock_div_1_rc = 15
1446:/usr/lib/avr/include/avr/power.h **** #endif
1447:/usr/lib/avr/include/avr/power.h **** } clock_div_t;
1448:/usr/lib/avr/include/avr/power.h **** 
1449:/usr/lib/avr/include/avr/power.h **** 
1450:/usr/lib/avr/include/avr/power.h **** static __inline__ void clock_prescale_set(clock_div_t) __attribute__((__always_inline__));
1451:/usr/lib/avr/include/avr/power.h **** 
1452:/usr/lib/avr/include/avr/power.h **** /** \addtogroup avr_power
1453:/usr/lib/avr/include/avr/power.h **** \code clock_prescale_set(x) \endcode
1454:/usr/lib/avr/include/avr/power.h **** 
1455:/usr/lib/avr/include/avr/power.h **** Set the clock prescaler register select bits, selecting a system clock
1456:/usr/lib/avr/include/avr/power.h **** division setting. This function is inlined, even if compiler
1457:/usr/lib/avr/include/avr/power.h **** optimizations are disabled.
1458:/usr/lib/avr/include/avr/power.h **** 
1459:/usr/lib/avr/include/avr/power.h **** The type of \c x is \c clock_div_t.
1460:/usr/lib/avr/include/avr/power.h **** 
1461:/usr/lib/avr/include/avr/power.h **** \note For device with XTAL Divide Control Register (XDIV), \c x can actually range
1462:/usr/lib/avr/include/avr/power.h **** from 1 to 129. Thus, one does not need to use \c clock_div_t type as argument.
1463:/usr/lib/avr/include/avr/power.h **** */
1464:/usr/lib/avr/include/avr/power.h **** void clock_prescale_set(clock_div_t __x)
1465:/usr/lib/avr/include/avr/power.h **** {
1466:/usr/lib/avr/include/avr/power.h ****     uint8_t __tmp = _BV(CLKPCE);
1467:/usr/lib/avr/include/avr/power.h ****     __asm__ __volatile__ (
 1444               		.loc 6 1467 0
 1445 001c 90E0      		ldi r25,0
 1446 001e 80E8      		ldi r24,lo8(-128)
 1447               	/* #APP */
 1448               	 ;  1467 "/usr/lib/avr/include/avr/power.h" 1
 1449 0020 0FB6      		in __tmp_reg__,__SREG__
 1450 0022 F894      		cli
 1451 0024 8093 6100 		sts 97, r24
 1452 0028 9093 6100 		sts 97, r25
 1453 002c 0FBE      		out __SREG__, __tmp_reg__
 1454               	 ;  0 "" 2
 1455               	/* #NOAPP */
 1456               	.LBE362:
 1457               	.LBE361:
 1458               	.LBE358:
 1459               	.LBE357:
 588:../tmk_core/protocol/lufa/lufa.c ****     keyboard_setup();
 1460               		.loc 1 588 0
 1461 002e 0E94 0000 		call hook_early_init
 1462               	.LVL114:
 589:../tmk_core/protocol/lufa/lufa.c ****     setup_usb();
 1463               		.loc 1 589 0
 1464 0032 0E94 0000 		call keyboard_setup
 1465               	.LVL115:
 1466               	.LBB363:
 1467               	.LBB364:
 575:../tmk_core/protocol/lufa/lufa.c **** 
 1468               		.loc 1 575 0
 1469 0036 0E94 0000 		call USB_Disable
 1470               	.LVL116:
 577:../tmk_core/protocol/lufa/lufa.c **** 
 1471               		.loc 1 577 0
 1472 003a 0E94 0000 		call USB_Init
 1473               	.LVL117:
 1474               	.LBB365:
 1475               	.LBB366:
 1476               	.LBB367:
 1477               		.loc 4 113 0
 1478 003e 8091 E200 		lds r24,226
 1479 0042 8460      		ori r24,lo8(4)
 1480 0044 8093 E200 		sts 226,r24
 1481               	.LBE367:
 1482               	.LBE366:
 1483               	.LBE365:
 581:../tmk_core/protocol/lufa/lufa.c **** }
 1484               		.loc 1 581 0
 1485 0048 80E0      		ldi r24,lo8(gs(sendchar))
 1486 004a 90E0      		ldi r25,hi8(gs(sendchar))
 1487 004c 0E94 0000 		call print_set_sendchar
 1488               	.LVL118:
 1489               	.LBE364:
 1490               	.LBE363:
 591:../tmk_core/protocol/lufa/lufa.c **** 
 1491               		.loc 1 591 0
 1492               	/* #APP */
 1493               	 ;  591 "../tmk_core/protocol/lufa/lufa.c" 1
 1494 0050 7894      		sei
 1495               	 ;  0 "" 2
 1496               	/* #NOAPP */
 1497               	.L173:
 594:../tmk_core/protocol/lufa/lufa.c **** #if defined(INTERRUPT_CONTROL_ENDPOINT)
 1498               		.loc 1 594 0 discriminator 1
 1499 0052 8091 0000 		lds r24,USB_DeviceState
 1500 0056 8430      		cpi r24,lo8(4)
 1501 0058 01F4      		brne .L173
 601:../tmk_core/protocol/lufa/lufa.c **** 
 1502               		.loc 1 601 0
 1503 005a 80E0      		ldi r24,lo8(__c.4829)
 1504 005c 90E0      		ldi r25,hi8(__c.4829)
 1505 005e 0E94 0000 		call xputs
 1506               	.LVL119:
 604:../tmk_core/protocol/lufa/lufa.c ****     host_set_driver(&lufa_driver);
 1507               		.loc 1 604 0
 1508 0062 0E94 0000 		call keyboard_init
 1509               	.LVL120:
 605:../tmk_core/protocol/lufa/lufa.c **** #ifdef SLEEP_LED_ENABLE
 1510               		.loc 1 605 0
 1511 0066 80E0      		ldi r24,lo8(lufa_driver)
 1512 0068 90E0      		ldi r25,hi8(lufa_driver)
 1513 006a 0E94 0000 		call host_set_driver
 1514               	.LVL121:
 610:../tmk_core/protocol/lufa/lufa.c ****     hook_late_init();
 1515               		.loc 1 610 0
 1516 006e 80E0      		ldi r24,lo8(__c.4831)
 1517 0070 90E0      		ldi r25,hi8(__c.4831)
 1518 0072 0E94 0000 		call xputs
 1519               	.LVL122:
 611:../tmk_core/protocol/lufa/lufa.c ****     while (1) {
 1520               		.loc 1 611 0
 1521 0076 0E94 0000 		call hook_late_init
 1522               	.LVL123:
 1523               	.L174:
 613:../tmk_core/protocol/lufa/lufa.c ****             print("[s]");
 1524               		.loc 1 613 0
 1525 007a 8091 0000 		lds r24,USB_DeviceState
 1526 007e 8530      		cpi r24,lo8(5)
 1527 0080 01F4      		brne .L178
 614:../tmk_core/protocol/lufa/lufa.c ****             hook_usb_suspend_loop();
 1528               		.loc 1 614 0
 1529 0082 80E0      		ldi r24,lo8(__c.4833)
 1530 0084 90E0      		ldi r25,hi8(__c.4833)
 1531 0086 0E94 0000 		call xputs
 1532               	.LVL124:
 615:../tmk_core/protocol/lufa/lufa.c ****         }
 1533               		.loc 1 615 0
 1534 008a 0E94 0000 		call hook_usb_suspend_loop
 1535               	.LVL125:
 1536 008e 00C0      		rjmp .L174
 1537               	.L178:
 618:../tmk_core/protocol/lufa/lufa.c **** 
 1538               		.loc 1 618 0
 1539 0090 0E94 0000 		call keyboard_task
 1540               	.LVL126:
 623:../tmk_core/protocol/lufa/lufa.c **** }
 1541               		.loc 1 623 0
 1542 0094 00C0      		rjmp .L174
 1543               		.cfi_endproc
 1544               	.LFE125:
 1546               		.section	.text.hook_usb_wakeup,"ax",@progbits
 1547               		.weak	hook_usb_wakeup
 1549               	hook_usb_wakeup:
 1550               	.LFB130:
 648:../tmk_core/protocol/lufa/lufa.c ****     }
 649:../tmk_core/protocol/lufa/lufa.c **** }
 650:../tmk_core/protocol/lufa/lufa.c **** 
 651:../tmk_core/protocol/lufa/lufa.c **** __attribute__((weak))
 652:../tmk_core/protocol/lufa/lufa.c **** void hook_usb_wakeup(void)
 653:../tmk_core/protocol/lufa/lufa.c **** {
 1551               		.loc 1 653 0
 1552               		.cfi_startproc
 1553               	/* prologue: function */
 1554               	/* frame size = 0 */
 1555               	/* stack size = 0 */
 1556               	.L__stack_usage = 0
 654:../tmk_core/protocol/lufa/lufa.c ****     suspend_wakeup_init();
 1557               		.loc 1 654 0
 1558 0000 0C94 0000 		jmp suspend_wakeup_init
 1559               	.LVL127:
 1560               		.cfi_endproc
 1561               	.LFE130:
 1563               		.section	.text.EVENT_USB_Device_WakeUp,"ax",@progbits
 1564               	.global	EVENT_USB_Device_WakeUp
 1566               	EVENT_USB_Device_WakeUp:
 1567               	.LFB113:
 188:../tmk_core/protocol/lufa/lufa.c ****     print("[W]");
 1568               		.loc 1 188 0
 1569               		.cfi_startproc
 1570               	/* prologue: function */
 1571               	/* frame size = 0 */
 1572               	/* stack size = 0 */
 1573               	.L__stack_usage = 0
 189:../tmk_core/protocol/lufa/lufa.c ****     hook_usb_wakeup();
 1574               		.loc 1 189 0
 1575 0000 80E0      		ldi r24,lo8(__c.4727)
 1576 0002 90E0      		ldi r25,hi8(__c.4727)
 1577 0004 0E94 0000 		call xputs
 1578               	.LVL128:
 190:../tmk_core/protocol/lufa/lufa.c **** }
 1579               		.loc 1 190 0
 1580 0008 0C94 0000 		jmp hook_usb_wakeup
 1581               	.LVL129:
 1582               		.cfi_endproc
 1583               	.LFE113:
 1585               		.section	.progmem.data.__c.4833,"a",@progbits
 1588               	__c.4833:
 1589 0000 5B73 5D00 		.string	"[s]"
 1590               		.section	.progmem.data.__c.4831,"a",@progbits
 1593               	__c.4831:
 1594 0000 4B65 7962 		.string	"Keyboard start.\n"
 1594      6F61 7264 
 1594      2073 7461 
 1594      7274 2E0A 
 1594      00
 1595               		.section	.progmem.data.__c.4829,"a",@progbits
 1598               	__c.4829:
 1599 0000 5553 4220 		.string	"USB configured.\n"
 1599      636F 6E66 
 1599      6967 7572 
 1599      6564 2E0A 
 1599      00
 1600               		.section	.bss.timeouted.4803,"aw",@nobits
 1603               	timeouted.4803:
 1604 0000 00        		.zero	1
 1605               		.section	.bss.count.4733,"aw",@nobits
 1608               	count.4733:
 1609 0000 00        		.zero	1
 1610               		.section	.progmem.data.__c.4727,"a",@progbits
 1613               	__c.4727:
 1614 0000 5B57 5D00 		.string	"[W]"
 1615               		.section	.progmem.data.__c.4723,"a",@progbits
 1618               	__c.4723:
 1619 0000 5B53 5D00 		.string	"[S]"
 1620               		.section	.progmem.data.__c.4719,"a",@progbits
 1623               	__c.4719:
 1624 0000 5B52 5D00 		.string	"[R]"
 1625               		.section	.progmem.data.__c.4714,"a",@progbits
 1628               	__c.4714:
 1629 0000 5B44 5D00 		.string	"[D]"
 1630               		.section	.progmem.data.__c.4709,"a",@progbits
 1633               	__c.4709:
 1634 0000 5B43 5D00 		.string	"[C]"
 1635               		.section	.bss.console_flush,"aw",@nobits
 1638               	console_flush:
 1639 0000 00        		.zero	1
 1640               	.global	lufa_driver
 1641               		.section	.data.lufa_driver,"aw",@progbits
 1644               	lufa_driver:
 1645 0000 0000      		.word	gs(keyboard_leds)
 1646 0002 0000      		.word	gs(send_keyboard)
 1647 0004 0000      		.word	gs(send_mouse)
 1648 0006 0000      		.word	gs(send_system)
 1649 0008 0000      		.word	gs(send_consumer)
 1650               		.section	.bss.keyboard_report_sent,"aw",@nobits
 1653               	keyboard_report_sent:
 1654 0000 0000 0000 		.zero	16
 1654      0000 0000 
 1654      0000 0000 
 1654      0000 0000 
 1655               		.section	.bss.keyboard_led_stats,"aw",@nobits
 1658               	keyboard_led_stats:
 1659 0000 00        		.zero	1
 1660               	.global	keyboard_protocol
 1661               		.section	.data.keyboard_protocol,"aw",@progbits
 1664               	keyboard_protocol:
 1665 0000 01        		.byte	1
 1666               	.global	keyboard_idle
 1667               		.section	.bss.keyboard_idle,"aw",@nobits
 1670               	keyboard_idle:
 1671 0000 00        		.zero	1
 1672               		.text
 1673               	.Letext0:
 1674               		.file 7 "/usr/lib/avr/include/stdint.h"
 1675               		.file 8 "../tmk_core/protocol/lufa/LUFA-git/LUFA/Drivers/USB/Core/AVR8/../Device.h"
 1676               		.file 9 "../tmk_core/protocol/lufa/LUFA-git/LUFA/Drivers/USB/Core/AVR8/../StdRequestType.h"
 1677               		.file 10 "../tmk_core/protocol/lufa/LUFA-git/LUFA/Drivers/USB/Class/Device/../Common/HIDClassCommo
 1678               		.file 11 "../tmk_core/common/report.h"
 1679               		.file 12 "../tmk_core/common/host_driver.h"
 1680               		.file 13 "../tmk_core/protocol/lufa/lufa.h"
 1681               		.file 14 "../tmk_core/protocol/lufa/LUFA-git/LUFA/Drivers/USB/Core/AVR8/../AVR8/Device_AVR8.h"
 1682               		.file 15 "../tmk_core/protocol/lufa/LUFA-git/LUFA/Drivers/USB/Core/AVR8/../DeviceStandardReq.h"
 1683               		.file 16 "../tmk_core/protocol/lufa/LUFA-git/LUFA/Drivers/USB/Core/USBTask.h"
 1684               		.file 17 "../tmk_core/common/host.h"
 1685               		.file 18 "../tmk_core/protocol/lufa/LUFA-git/LUFA/Drivers/USB/Core/AVR8/USBController_AVR8.h"
 1686               		.file 19 "../tmk_core/protocol/lufa/LUFA-git/LUFA/Drivers/USB/Core/AVR8/../AVR8/EndpointStream_AVR
 1687               		.file 20 "../tmk_core/common/action.h"
 1688               		.file 21 "../tmk_core/common/suspend.h"
 1689               		.file 22 "../tmk_core/common/avr/xprintf.h"
 1690               		.file 23 "../tmk_core/common/print.h"
 1691               		.file 24 "../tmk_core/common/keyboard.h"
DEFINED SYMBOLS
                            *ABS*:0000000000000000 lufa.c
     /tmp/ccoFPXmf.s:2      *ABS*:000000000000003e __SP_H__
     /tmp/ccoFPXmf.s:3      *ABS*:000000000000003d __SP_L__
     /tmp/ccoFPXmf.s:4      *ABS*:000000000000003f __SREG__
     /tmp/ccoFPXmf.s:5      *ABS*:0000000000000000 __tmp_reg__
     /tmp/ccoFPXmf.s:6      *ABS*:0000000000000001 __zero_reg__
     /tmp/ccoFPXmf.s:12     .text.keyboard_leds:0000000000000000 keyboard_leds
     /tmp/ccoFPXmf.s:1658   .bss.keyboard_led_stats:0000000000000000 keyboard_led_stats
     /tmp/ccoFPXmf.s:30     .text.sendchar:0000000000000000 sendchar
     /tmp/ccoFPXmf.s:1638   .bss.console_flush:0000000000000000 console_flush
     /tmp/ccoFPXmf.s:1603   .bss.timeouted.4803:0000000000000000 timeouted.4803
     /tmp/ccoFPXmf.s:263    .text.send_consumer:0000000000000000 send_consumer
     /tmp/ccoFPXmf.s:379    .text.send_system:0000000000000000 send_system
     /tmp/ccoFPXmf.s:495    .text.send_mouse:0000000000000000 send_mouse
     /tmp/ccoFPXmf.s:579    .text.send_keyboard:0000000000000000 send_keyboard
     /tmp/ccoFPXmf.s:1664   .data.keyboard_protocol:0000000000000000 keyboard_protocol
     /tmp/ccoFPXmf.s:1653   .bss.keyboard_report_sent:0000000000000000 keyboard_report_sent
     /tmp/ccoFPXmf.s:756    .text.EVENT_USB_Device_Connect:0000000000000000 EVENT_USB_Device_Connect
     /tmp/ccoFPXmf.s:1633   .progmem.data.__c.4709:0000000000000000 __c.4709
     /tmp/ccoFPXmf.s:799    .text.EVENT_USB_Device_Disconnect:0000000000000000 EVENT_USB_Device_Disconnect
     /tmp/ccoFPXmf.s:1628   .progmem.data.__c.4714:0000000000000000 __c.4714
     /tmp/ccoFPXmf.s:821    .text.EVENT_USB_Device_Reset:0000000000000000 EVENT_USB_Device_Reset
     /tmp/ccoFPXmf.s:1623   .progmem.data.__c.4719:0000000000000000 __c.4719
     /tmp/ccoFPXmf.s:840    .text.EVENT_USB_Device_StartOfFrame:0000000000000000 EVENT_USB_Device_StartOfFrame
     /tmp/ccoFPXmf.s:1608   .bss.count.4733:0000000000000000 count.4733
     /tmp/ccoFPXmf.s:978    .text.EVENT_USB_Device_ConfigurationChanged:0000000000000000 EVENT_USB_Device_ConfigurationChanged
     /tmp/ccoFPXmf.s:1039   .text.EVENT_USB_Device_ControlRequest:0000000000000000 EVENT_USB_Device_ControlRequest
     /tmp/ccoFPXmf.s:1670   .bss.keyboard_idle:0000000000000000 keyboard_idle
     /tmp/ccoFPXmf.s:1310   .text.hook_early_init:0000000000000000 hook_early_init
     /tmp/ccoFPXmf.s:1325   .text.hook_late_init:0000000000000000 hook_late_init
     /tmp/ccoFPXmf.s:1340   .text.hook_usb_suspend_entry:0000000000000000 hook_usb_suspend_entry
     /tmp/ccoFPXmf.s:1355   .text.EVENT_USB_Device_Suspend:0000000000000000 EVENT_USB_Device_Suspend
     /tmp/ccoFPXmf.s:1618   .progmem.data.__c.4723:0000000000000000 __c.4723
     /tmp/ccoFPXmf.s:1377   .text.hook_usb_suspend_loop:0000000000000000 hook_usb_suspend_loop
     /tmp/ccoFPXmf.s:1407   .text.startup.main:0000000000000000 main
     /tmp/ccoFPXmf.s:1598   .progmem.data.__c.4829:0000000000000000 __c.4829
     /tmp/ccoFPXmf.s:1644   .data.lufa_driver:0000000000000000 lufa_driver
     /tmp/ccoFPXmf.s:1593   .progmem.data.__c.4831:0000000000000000 __c.4831
     /tmp/ccoFPXmf.s:1588   .progmem.data.__c.4833:0000000000000000 __c.4833
     /tmp/ccoFPXmf.s:1549   .text.hook_usb_wakeup:0000000000000000 hook_usb_wakeup
     /tmp/ccoFPXmf.s:1566   .text.EVENT_USB_Device_WakeUp:0000000000000000 EVENT_USB_Device_WakeUp
     /tmp/ccoFPXmf.s:1613   .progmem.data.__c.4727:0000000000000000 __c.4727

UNDEFINED SYMBOLS
USB_DeviceState
Endpoint_Write_Stream_LE
keyboard_nkro
xputs
USB_IsInitialized
USB_Disable
USB_Init
__udivmodqi4
Endpoint_ConfigureEndpoint_Prv
USB_ControlRequest
Endpoint_Write_Control_Stream_LE
Endpoint_ClearStatusStage
clear_keyboard
suspend_power_down
USB_Device_RemoteWakeupEnabled
suspend_wakeup_condition
USB_Device_SendRemoteWakeup
keyboard_setup
print_set_sendchar
keyboard_init
host_set_driver
keyboard_task
suspend_wakeup_init
__do_copy_data
__do_clear_bss
